(dp1
S'output'
p2
S'<class \'gluon.contrib.pymysql.err.ProgrammingError\'> (1146, u"Table \'kids.frequencia\' doesn\'t exist")'
p3
sS'layer'
p4
S'/home/leonardo/Downloads/web2py/applications/KidsAppManager/models/db.py'
p5
sS'code'
p6
S'<code object <module> at 0x7fe6ac653230, file "/home/leonardo/Downloads/web2py/applications/KidsAppManager/models/db.py", line 7>'
p7
sS'snapshot'
p8
(dp9
S'exception'
p10
(dp11
S'__module__'
p12
S"'gluon.contrib.pymysql.err'"
p13
sS'__getslice__'
p14
S"<method-wrapper '__getslice__' of ProgrammingError object>"
p15
sS'__str__'
p16
S"<method-wrapper '__str__' of ProgrammingError object>"
p17
sS'__reduce__'
p18
S'<built-in method __reduce__ of ProgrammingError object>'
p19
sS'__dict__'
p20
S'{}'
p21
sS'__sizeof__'
p22
S'<built-in method __sizeof__ of ProgrammingError object>'
p23
sS'__weakref__'
p24
S'None'
p25
sS'message'
p26
S"''"
p27
sS'__init__'
p28
S"<method-wrapper '__init__' of ProgrammingError object>"
p29
sS'__setattr__'
p30
S"<method-wrapper '__setattr__' of ProgrammingError object>"
p31
sS'__reduce_ex__'
p32
S'<built-in method __reduce_ex__ of ProgrammingError object>'
p33
sS'__new__'
p34
S'<built-in method __new__ of type object>'
p35
sS'__format__'
p36
S'<built-in method __format__ of ProgrammingError object>'
p37
sS'__class__'
p38
S"<class 'gluon.contrib.pymysql.err.ProgrammingError'>"
p39
sS'__doc__'
p40
S"'Exception raised for programming errors, e.g. ta...t, wrong number\\n    of parameters specified, etc.'"
p41
sS'__getitem__'
p42
S"<method-wrapper '__getitem__' of ProgrammingError object>"
p43
sS'__setstate__'
p44
S'<built-in method __setstate__ of ProgrammingError object>'
p45
sS'__getattribute__'
p46
S"<method-wrapper '__getattribute__' of ProgrammingError object>"
p47
sS'args'
p48
S'(1146, u"Table \'kids.frequencia\' doesn\'t exist")'
p49
sS'__subclasshook__'
p50
S'<built-in method __subclasshook__ of type object>'
p51
sS'__unicode__'
p52
S'<built-in method __unicode__ of ProgrammingError object>'
p53
sS'__delattr__'
p54
S"<method-wrapper '__delattr__' of ProgrammingError object>"
p55
sS'__repr__'
p56
S"<method-wrapper '__repr__' of ProgrammingError object>"
p57
sS'__hash__'
p58
S"<method-wrapper '__hash__' of ProgrammingError object>"
p59
ssS'evalue'
p60
S'(1146, u"Table \'kids.frequencia\' doesn\'t exist")'
p61
sS'request'
p62
cgluon.html
XML_unpickle
p63
(S'sZU\x00\x00<div><table><tr><td style="font-weight:bold;vertical-align:top;">ajax</td><td style="vertical-align:top;">:</td><td><div>False</div></td></tr><tr><td style="font-weight:bold;vertical-align:top;">application</td><td style="vertical-align:top;">:</td><td><div>KidsAppManager</div></td></tr><tr><td style="font-weight:bold;vertical-align:top;">args</td><td style="vertical-align:top;">:</td><td><div><table></table></div></td></tr><tr><td style="font-weight:bold;vertical-align:top;">cid</td><td style="vertical-align:top;">:</td><td><div>None</div></td></tr><tr><td style="font-weight:bold;vertical-align:top;">client</td><td style="vertical-align:top;">:</td><td><div>127.0.0.1</div></td></tr><tr><td style="font-weight:bold;vertical-align:top;">controller</td><td style="vertical-align:top;">:</td><td><div>appadmin</div></td></tr><tr><td style="font-weight:bold;vertical-align:top;">cookies</td><td style="vertical-align:top;">:</td><td><div><table><tr><td style="font-weight:bold;vertical-align:top;">session_id_admin</td><td style="vertical-align:top;">:</td><td><div>127.0.0.1-e6ff09ed-1276-46b6-9c02-62349666909e<table><tr><td style="font-weight:bold;vertical-align:top;">comment</td><td style="vertical-align:top;">:</td><td><div></div></td></tr><tr><td style="font-weight:bold;vertical-align:top;">domain</td><td style="vertical-align:top;">:</td><td><div></div></td></tr><tr><td style="font-weight:bold;vertical-align:top;">expires</td><td style="vertical-align:top;">:</td><td><div></div></td></tr><tr><td style="font-weight:bold;vertical-align:top;">httponly</td><td style="vertical-align:top;">:</td><td><div></div></td></tr><tr><td style="font-weight:bold;vertical-align:top;">max-age</td><td style="vertical-align:top;">:</td><td><div></div></td></tr><tr><td style="font-weight:bold;vertical-align:top;">path</td><td style="vertical-align:top;">:</td><td><div></div></td></tr><tr><td style="font-weight:bold;vertical-align:top;">secure</td><td style="vertical-align:top;">:</td><td><div></div></td></tr><tr><td style="font-weight:bold;vertical-align:top;">version</td><td style="vertical-align:top;">:</td><td><div></div></td></tr></table></div></td></tr><tr><td style="font-weight:bold;vertical-align:top;">session_id_kidsappmanager</td><td style="vertical-align:top;">:</td><td><div>127.0.0.1-6f86a6a5-f09c-428f-820a-1e6edcefd84e<table><tr><td style="font-weight:bold;vertical-align:top;">comment</td><td style="vertical-align:top;">:</td><td><div></div></td></tr><tr><td style="font-weight:bold;vertical-align:top;">domain</td><td style="vertical-align:top;">:</td><td><div></div></td></tr><tr><td style="font-weight:bold;vertical-align:top;">expires</td><td style="vertical-align:top;">:</td><td><div></div></td></tr><tr><td style="font-weight:bold;vertical-align:top;">httponly</td><td style="vertical-align:top;">:</td><td><div></div></td></tr><tr><td style="font-weight:bold;vertical-align:top;">max-age</td><td style="vertical-align:top;">:</td><td><div></div></td></tr><tr><td style="font-weight:bold;vertical-align:top;">path</td><td style="vertical-align:top;">:</td><td><div></div></td></tr><tr><td style="font-weight:bold;vertical-align:top;">secure</td><td style="vertical-align:top;">:</td><td><div></div></td></tr><tr><td style="font-weight:bold;vertical-align:top;">version</td><td style="vertical-align:top;">:</td><td><div></div></td></tr></table></div></td></tr></table></div></td></tr><tr><td style="font-weight:bold;vertical-align:top;">env</td><td style="vertical-align:top;">:</td><td><div><table><tr><td style="font-weight:bold;vertical-align:top;">HTTP_ACCEPT</td><td style="vertical-align:top;">:</td><td><div>text/html,application/xhtml+xml,application/xml;q=0.9,image/webp,image/apng,*/*;q=0.8</div></td></tr><tr><td style="font-weight:bold;vertical-align:top;">HTTP_ACCEPT_ENCODING</td><td style="vertical-align:top;">:</td><td><div>gzip, deflate, br</div></td></tr><tr><td style="font-weight:bold;vertical-align:top;">HTTP_ACCEPT_LANGUAGE</td><td style="vertical-align:top;">:</td><td><div>pt-BR,pt;q=0.9,en-US;q=0.8,en;q=0.7</div></td></tr><tr><td style="font-weight:bold;vertical-align:top;">HTTP_CONNECTION</td><td style="vertical-align:top;">:</td><td><div>keep-alive</div></td></tr><tr><td style="font-weight:bold;vertical-align:top;">HTTP_COOKIE</td><td style="vertical-align:top;">:</td><td><div>session_id_admin=127.0.0.1-e6ff09ed-1276-46b6-9c02-62349666909e; session_id_kidsappmanager=127.0.0.1-6f86a6a5-f09c-428f-820a-1e6edcefd84e</div></td></tr><tr><td style="font-weight:bold;vertical-align:top;">HTTP_HOST</td><td style="vertical-align:top;">:</td><td><div>127.0.0.1:8000</div></td></tr><tr><td style="font-weight:bold;vertical-align:top;">HTTP_UPGRADE_INSECURE_REQUESTS</td><td style="vertical-align:top;">:</td><td><div>1</div></td></tr><tr><td style="font-weight:bold;vertical-align:top;">HTTP_USER_AGENT</td><td style="vertical-align:top;">:</td><td><div>Mozilla/5.0 (X11; Linux x86_64) AppleWebKit/537.36 (KHTML, like Gecko) Chrome/67.0.3396.87 Safari/537.36</div></td></tr><tr><td style="font-weight:bold;vertical-align:top;">PATH_INFO</td><td style="vertical-align:top;">:</td><td><div>/KidsAppManager/appadmin</div></td></tr><tr><td style="font-weight:bold;vertical-align:top;">QUERY_STRING</td><td style="vertical-align:top;">:</td><td><div></div></td></tr><tr><td style="font-weight:bold;vertical-align:top;">REMOTE_ADDR</td><td style="vertical-align:top;">:</td><td><div>127.0.0.1</div></td></tr><tr><td style="font-weight:bold;vertical-align:top;">REMOTE_PORT</td><td style="vertical-align:top;">:</td><td><div>41952</div></td></tr><tr><td style="font-weight:bold;vertical-align:top;">REQUEST_METHOD</td><td style="vertical-align:top;">:</td><td><div>GET</div></td></tr><tr><td style="font-weight:bold;vertical-align:top;">SCRIPT_NAME</td><td style="vertical-align:top;">:</td><td><div></div></td></tr><tr><td style="font-weight:bold;vertical-align:top;">SERVER_NAME</td><td style="vertical-align:top;">:</td><td><div>Unknow</div></td></tr><tr><td style="font-weight:bold;vertical-align:top;">SERVER_PORT</td><td style="vertical-align:top;">:</td><td><div>8000</div></td></tr><tr><td style="font-weight:bold;vertical-align:top;">SERVER_PROTOCOL</td><td style="vertical-align:top;">:</td><td><div>HTTP/1.1</div></td></tr><tr><td style="font-weight:bold;vertical-align:top;">SERVER_SOFTWARE</td><td style="vertical-align:top;">:</td><td><div>Rocket 1.2.6</div></td></tr><tr><td style="font-weight:bold;vertical-align:top;">app_folders</td><td style="vertical-align:top;">:</td><td><div>set([&#x27;/home/leonardo/Downloads/web2py/applications/KidsAppManager/&#x27;])</div></td></tr><tr><td style="font-weight:bold;vertical-align:top;">applications_parent</td><td style="vertical-align:top;">:</td><td><div>/home/leonardo/Downloads/web2py</div></td></tr><tr><td style="font-weight:bold;vertical-align:top;">cmd_args</td><td style="vertical-align:top;">:</td><td><div><table></table></div></td></tr><tr><td style="font-weight:bold;vertical-align:top;">cmd_options</td><td style="vertical-align:top;">:</td><td><div>&lt;Values at 0x7fe6ad1c6830: {&#x27;verbose&#x27;: False, &#x27;ip&#x27;: &#x27;127.0.0.1&#x27;, &#x27;debuglevel&#x27;: 30, &#x27;with_scheduler&#x27;: False, &#x27;shutdown_timeout&#x27;: 5, &#x27;taskbar&#x27;: False, &#x27;with_coverage&#x27;: False, &#x27;pid_filename&#x27;: &#x27;httpserver.pid&#x27;, &#x27;maxthreads&#x27;: None, &#x27;softcron&#x27;: False, &#x27;server_name&#x27;: &#x27;Unknow&#x27;, &#x27;bpython&#x27;: False, &#x27;nogui&#x27;: False, &#x27;port&#x27;: 8000, &#x27;print_errors&#x27;: False, &#x27;extcron&#x27;: False, &#x27;runcron&#x27;: False, &#x27;run_system_tests&#x27;: False, &#x27;test&#x27;: None, &#x27;folder&#x27;: &#x27;/home/leonardo/Downloads/web2py&#x27;, &#x27;config&#x27;: &#x27;&#x27;, &#x27;minthreads&#x27;: None, &#x27;shell&#x27;: None, &#x27;run&#x27;: &#x27;&#x27;, &#x27;log_filename&#x27;: &#x27;httpserver.log&#x27;, &#x27;profiler_dir&#x27;: None, &#x27;args&#x27;: [&#x27;&#x27;], &#x27;socket_timeout&#x27;: 5, &#x27;ssl_ca_certificate&#x27;: None, &#x27;scheduler&#x27;: None, &#x27;interfaces&#x27;: None, &#x27;ssl_private_key&#x27;: &#x27;&#x27;, &#x27;gae&#x27;: None, &#x27;password&#x27;: &#x27;******&#x27;, &#x27;request_queue_size&#x27;: 5, &#x27;ssl_certificate&#x27;: &#x27;&#x27;, &#x27;cronjob&#x27;: False, &#x27;numthreads&#x27;: None, &#x27;quiet&#x27;: False, &#x27;import_models&#x27;: False, &#x27;timeout&#x27;: 10, &#x27;plain&#x27;: False, &#x27;nobanner&#x27;: False}&gt;</div></td></tr><tr><td style="font-weight:bold;vertical-align:top;">db_sessions</td><td style="vertical-align:top;">:</td><td><div>set([])</div></td></tr><tr><td style="font-weight:bold;vertical-align:top;">debugging</td><td style="vertical-align:top;">:</td><td><div>False</div></td></tr><tr><td style="font-weight:bold;vertical-align:top;">gluon_parent</td><td style="vertical-align:top;">:</td><td><div>/home/leonardo/Downloads/web2py</div></td></tr><tr><td style="font-weight:bold;vertical-align:top;">http_accept</td><td style="vertical-align:top;">:</td><td><div>text/html,application/xhtml+xml,application/xml;q=0.9,image/webp,image/apng,*/*;q=0.8</div></td></tr><tr><td style="font-weight:bold;vertical-align:top;">http_accept_encoding</td><td style="vertical-align:top;">:</td><td><div>gzip, deflate, br</div></td></tr><tr><td style="font-weight:bold;vertical-align:top;">http_accept_language</td><td style="vertical-align:top;">:</td><td><div>pt-BR,pt;q=0.9,en-US;q=0.8,en;q=0.7</div></td></tr><tr><td style="font-weight:bold;vertical-align:top;">http_connection</td><td style="vertical-align:top;">:</td><td><div>keep-alive</div></td></tr><tr><td style="font-weight:bold;vertical-align:top;">http_cookie</td><td style="vertical-align:top;">:</td><td><div>session_id_admin=127.0.0.1-e6ff09ed-1276-46b6-9c02-62349666909e; session_id_kidsappmanager=127.0.0.1-6f86a6a5-f09c-428f-820a-1e6edcefd84e</div></td></tr><tr><td style="font-weight:bold;vertical-align:top;">http_host</td><td style="vertical-align:top;">:</td><td><div>127.0.0.1:8000</div></td></tr><tr><td style="font-weight:bold;vertical-align:top;">http_upgrade_insecure_requests</td><td style="vertical-align:top;">:</td><td><div>1</div></td></tr><tr><td style="font-weight:bold;vertical-align:top;">http_user_agent</td><td style="vertical-align:top;">:</td><td><div>Mozilla/5.0 (X11; Linux x86_64) AppleWebKit/537.36 (KHTML, like Gecko) Chrome/67.0.3396.87 Safari/537.36</div></td></tr><tr><td style="font-weight:bold;vertical-align:top;">is_jython</td><td style="vertical-align:top;">:</td><td><div>False</div></td></tr><tr><td style="font-weight:bold;vertical-align:top;">is_py2</td><td style="vertical-align:top;">:</td><td><div>True</div></td></tr><tr><td style="font-weight:bold;vertical-align:top;">is_pypy</td><td style="vertical-align:top;">:</td><td><div>False</div></td></tr><tr><td style="font-weight:bold;vertical-align:top;">is_source</td><td style="vertical-align:top;">:</td><td><div>True</div></td></tr><tr><td style="font-weight:bold;vertical-align:top;">local_hosts</td><td style="vertical-align:top;">:</td><td><div><table><tr><td><div>127.0.1.1</div></td></tr><tr><td><div>::1</div></td></tr><tr><td><div>Unknow</div></td></tr><tr><td><div>::ffff:127.0.0.1</div></td></tr><tr><td><div>127.0.0.1</div></td></tr></table></div></td></tr><tr><td style="font-weight:bold;vertical-align:top;">path_info</td><td style="vertical-align:top;">:</td><td><div>/KidsAppManager/appadmin</div></td></tr><tr><td style="font-weight:bold;vertical-align:top;">query_string</td><td style="vertical-align:top;">:</td><td><div></div></td></tr><tr><td style="font-weight:bold;vertical-align:top;">remote_addr</td><td style="vertical-align:top;">:</td><td><div>127.0.0.1</div></td></tr><tr><td style="font-weight:bold;vertical-align:top;">remote_port</td><td style="vertical-align:top;">:</td><td><div>41952</div></td></tr><tr><td style="font-weight:bold;vertical-align:top;">request_method</td><td style="vertical-align:top;">:</td><td><div>GET</div></td></tr><tr><td style="font-weight:bold;vertical-align:top;">request_uri</td><td style="vertical-align:top;">:</td><td><div>/KidsAppManager/appadmin</div></td></tr><tr><td style="font-weight:bold;vertical-align:top;">script_name</td><td style="vertical-align:top;">:</td><td><div></div></td></tr><tr><td style="font-weight:bold;vertical-align:top;">server_name</td><td style="vertical-align:top;">:</td><td><div>Unknow</div></td></tr><tr><td style="font-weight:bold;vertical-align:top;">server_port</td><td style="vertical-align:top;">:</td><td><div>8000</div></td></tr><tr><td style="font-weight:bold;vertical-align:top;">server_protocol</td><td style="vertical-align:top;">:</td><td><div>HTTP/1.1</div></td></tr><tr><td style="font-weight:bold;vertical-align:top;">server_software</td><td style="vertical-align:top;">:</td><td><div>Rocket 1.2.6</div></td></tr><tr><td style="font-weight:bold;vertical-align:top;">web2py_path</td><td style="vertical-align:top;">:</td><td><div>/home/leonardo/Downloads/web2py</div></td></tr><tr><td style="font-weight:bold;vertical-align:top;">web2py_version</td><td style="vertical-align:top;">:</td><td><div>2.16.1-stable+timestamp.2017.11.14.05.54.25</div></td></tr><tr><td style="font-weight:bold;vertical-align:top;">wsgi.errors</td><td style="vertical-align:top;">:</td><td><div>&lt;open file &#x27;&lt;stderr&gt;&#x27;, mode &#x27;w&#x27; at 0x7fe6b181e1e0&gt;</div></td></tr><tr><td style="font-weight:bold;vertical-align:top;">wsgi.file_wrapper</td><td style="vertical-align:top;">:</td><td><div>&lt;class wsgiref.util.FileWrapper at 0x7fe6ad1fe2c0&gt;</div></td></tr><tr><td style="font-weight:bold;vertical-align:top;">wsgi.input</td><td style="vertical-align:top;">:</td><td><div>&lt;socket._fileobject object at 0x7fe6ac495950&gt;</div></td></tr><tr><td style="font-weight:bold;vertical-align:top;">wsgi.multiprocess</td><td style="vertical-align:top;">:</td><td><div>False</div></td></tr><tr><td style="font-weight:bold;vertical-align:top;">wsgi.multithread</td><td style="vertical-align:top;">:</td><td><div>True</div></td></tr><tr><td style="font-weight:bold;vertical-align:top;">wsgi.run_once</td><td style="vertical-align:top;">:</td><td><div>False</div></td></tr><tr><td style="font-weight:bold;vertical-align:top;">wsgi.url_scheme</td><td style="vertical-align:top;">:</td><td><div>http</div></td></tr><tr><td style="font-weight:bold;vertical-align:top;">wsgi.version</td><td style="vertical-align:top;">:</td><td><div><table><tr><td><div>1</div></td></tr><tr><td><div>0</div></td></tr></table></div></td></tr><tr><td style="font-weight:bold;vertical-align:top;">wsgi_errors</td><td style="vertical-align:top;">:</td><td><div>&lt;open file &#x27;&lt;stderr&gt;&#x27;, mode &#x27;w&#x27; at 0x7fe6b181e1e0&gt;</div></td></tr><tr><td style="font-weight:bold;vertical-align:top;">wsgi_file_wrapper</td><td style="vertical-align:top;">:</td><td><div>&lt;class wsgiref.util.FileWrapper at 0x7fe6ad1fe2c0&gt;</div></td></tr><tr><td style="font-weight:bold;vertical-align:top;">wsgi_input</td><td style="vertical-align:top;">:</td><td><div>&lt;socket._fileobject object at 0x7fe6ac495950&gt;</div></td></tr><tr><td style="font-weight:bold;vertical-align:top;">wsgi_multiprocess</td><td style="vertical-align:top;">:</td><td><div>False</div></td></tr><tr><td style="font-weight:bold;vertical-align:top;">wsgi_multithread</td><td style="vertical-align:top;">:</td><td><div>True</div></td></tr><tr><td style="font-weight:bold;vertical-align:top;">wsgi_run_once</td><td style="vertical-align:top;">:</td><td><div>False</div></td></tr><tr><td style="font-weight:bold;vertical-align:top;">wsgi_url_scheme</td><td style="vertical-align:top;">:</td><td><div>http</div></td></tr><tr><td style="font-weight:bold;vertical-align:top;">wsgi_version</td><td style="vertical-align:top;">:</td><td><div><table><tr><td><div>1</div></td></tr><tr><td><div>0</div></td></tr></table></div></td></tr></table></div></td></tr><tr><td style="font-weight:bold;vertical-align:top;">extension</td><td style="vertical-align:top;">:</td><td><div>html</div></td></tr><tr><td style="font-weight:bold;vertical-align:top;">folder</td><td style="vertical-align:top;">:</td><td><div>/home/leonardo/Downloads/web2py/applications/KidsAppManager/</div></td></tr><tr><td style="font-weight:bold;vertical-align:top;">function</td><td style="vertical-align:top;">:</td><td><div>index</div></td></tr><tr><td style="font-weight:bold;vertical-align:top;">global_settings</td><td style="vertical-align:top;">:</td><td><div><table><tr><td style="font-weight:bold;vertical-align:top;">app_folders</td><td style="vertical-align:top;">:</td><td><div>set([&#x27;/home/leonardo/Downloads/web2py/applications/KidsAppManager/&#x27;])</div></td></tr><tr><td style="font-weight:bold;vertical-align:top;">applications_parent</td><td style="vertical-align:top;">:</td><td><div>/home/leonardo/Downloads/web2py</div></td></tr><tr><td style="font-weight:bold;vertical-align:top;">cmd_args</td><td style="vertical-align:top;">:</td><td><div><table></table></div></td></tr><tr><td style="font-weight:bold;vertical-align:top;">cmd_options</td><td style="vertical-align:top;">:</td><td><div>&lt;Values at 0x7fe6ad1c6830: {&#x27;verbose&#x27;: False, &#x27;ip&#x27;: &#x27;127.0.0.1&#x27;, &#x27;debuglevel&#x27;: 30, &#x27;with_scheduler&#x27;: False, &#x27;shutdown_timeout&#x27;: 5, &#x27;taskbar&#x27;: False, &#x27;with_coverage&#x27;: False, &#x27;pid_filename&#x27;: &#x27;httpserver.pid&#x27;, &#x27;maxthreads&#x27;: None, &#x27;softcron&#x27;: False, &#x27;server_name&#x27;: &#x27;Unknow&#x27;, &#x27;bpython&#x27;: False, &#x27;nogui&#x27;: False, &#x27;port&#x27;: 8000, &#x27;print_errors&#x27;: False, &#x27;extcron&#x27;: False, &#x27;runcron&#x27;: False, &#x27;run_system_tests&#x27;: False, &#x27;test&#x27;: None, &#x27;folder&#x27;: &#x27;/home/leonardo/Downloads/web2py&#x27;, &#x27;config&#x27;: &#x27;&#x27;, &#x27;minthreads&#x27;: None, &#x27;shell&#x27;: None, &#x27;run&#x27;: &#x27;&#x27;, &#x27;log_filename&#x27;: &#x27;httpserver.log&#x27;, &#x27;profiler_dir&#x27;: None, &#x27;args&#x27;: [&#x27;&#x27;], &#x27;socket_timeout&#x27;: 5, &#x27;ssl_ca_certificate&#x27;: None, &#x27;scheduler&#x27;: None, &#x27;interfaces&#x27;: None, &#x27;ssl_private_key&#x27;: &#x27;&#x27;, &#x27;gae&#x27;: None, &#x27;password&#x27;: &#x27;******&#x27;, &#x27;request_queue_size&#x27;: 5, &#x27;ssl_certificate&#x27;: &#x27;&#x27;, &#x27;cronjob&#x27;: False, &#x27;numthreads&#x27;: None, &#x27;quiet&#x27;: False, &#x27;import_models&#x27;: False, &#x27;timeout&#x27;: 10, &#x27;plain&#x27;: False, &#x27;nobanner&#x27;: False}&gt;</div></td></tr><tr><td style="font-weight:bold;vertical-align:top;">db_sessions</td><td style="vertical-align:top;">:</td><td><div>set([])</div></td></tr><tr><td style="font-weight:bold;vertical-align:top;">debugging</td><td style="vertical-align:top;">:</td><td><div>False</div></td></tr><tr><td style="font-weight:bold;vertical-align:top;">gluon_parent</td><td style="vertical-align:top;">:</td><td><div>/home/leonardo/Downloads/web2py</div></td></tr><tr><td style="font-weight:bold;vertical-align:top;">is_jython</td><td style="vertical-align:top;">:</td><td><div>False</div></td></tr><tr><td style="font-weight:bold;vertical-align:top;">is_py2</td><td style="vertical-align:top;">:</td><td><div>True</div></td></tr><tr><td style="font-weight:bold;vertical-align:top;">is_pypy</td><td style="vertical-align:top;">:</td><td><div>False</div></td></tr><tr><td style="font-weight:bold;vertical-align:top;">is_source</td><td style="vertical-align:top;">:</td><td><div>True</div></td></tr><tr><td style="font-weight:bold;vertical-align:top;">local_hosts</td><td style="vertical-align:top;">:</td><td><div><table><tr><td><div>127.0.1.1</div></td></tr><tr><td><div>::1</div></td></tr><tr><td><div>Unknow</div></td></tr><tr><td><div>::ffff:127.0.0.1</div></td></tr><tr><td><div>127.0.0.1</div></td></tr></table></div></td></tr><tr><td style="font-weight:bold;vertical-align:top;">web2py_version</td><td style="vertical-align:top;">:</td><td><div>2.16.1-stable+timestamp.2017.11.14.05.54.25</div></td></tr></table></div></td></tr><tr><td style="font-weight:bold;vertical-align:top;">is_https</td><td style="vertical-align:top;">:</td><td><div>False</div></td></tr><tr><td style="font-weight:bold;vertical-align:top;">is_local</td><td style="vertical-align:top;">:</td><td><div>True</div></td></tr><tr><td style="font-weight:bold;vertical-align:top;">is_restful</td><td style="vertical-align:top;">:</td><td><div>False</div></td></tr><tr><td style="font-weight:bold;vertical-align:top;">is_scheduler</td><td style="vertical-align:top;">:</td><td><div>False</div></td></tr><tr><td style="font-weight:bold;vertical-align:top;">is_shell</td><td style="vertical-align:top;">:</td><td><div>False</div></td></tr><tr><td style="font-weight:bold;vertical-align:top;">now</td><td style="vertical-align:top;">:</td><td><div>datetime.datetime(2018, 6, 13, 22, 57, 27, 785523)</div></td></tr><tr><td style="font-weight:bold;vertical-align:top;">raw_args</td><td style="vertical-align:top;">:</td><td><div></div></td></tr><tr><td style="font-weight:bold;vertical-align:top;">raw_extension</td><td style="vertical-align:top;">:</td><td><div>None</div></td></tr><tr><td style="font-weight:bold;vertical-align:top;">url</td><td style="vertical-align:top;">:</td><td><div>/KidsAppManager/appadmin</div></td></tr><tr><td style="font-weight:bold;vertical-align:top;">utcnow</td><td style="vertical-align:top;">:</td><td><div>datetime.datetime(2018, 6, 14, 1, 57, 27, 785541)</div></td></tr><tr><td style="font-weight:bold;vertical-align:top;">wsgi</td><td style="vertical-align:top;">:</td><td><div>&lt;gluon.main.LazyWSGI object at 0x7fe6ac757390&gt;</div></td></tr></table></div>'
tRp64
sS'frames'
p65
(lp66
(dp67
S'file'
p68
S'/home/leonardo/Downloads/web2py/gluon/restricted.py'
p69
sS'dump'
p70
(dp71
S'environment'
p72
S"{'A': <class 'gluon.html.A'>, 'ANY_OF': <class 'gluon.validators.ANY_OF'>, 'ASSIGNJS': <function ASSIGNJS>, 'AppConfig': <function AppConfig>, 'Auth': <class 'gluon.tools.Auth'>, 'B': <class 'gluon.html.B'>, 'BEAUTIFY': <class 'gluon.html.BEAUTIFY'>, 'BODY': <class 'gluon.html.BODY'>, 'BR': <class 'gluon.html.BR'>, 'BUTTON': <class 'gluon.html.BUTTON'>, ...}"
p73
sS'ccode'
p74
S'<code object <module> at 0x7fe6ac653230, file "/...pplications/KidsAppManager/models/db.py", line 7>'
p75
ssS'lnum'
p76
I219
sS'lines'
p77
(dp78
I214
S'    if environment is None:'
p79
sI215
S'        environment = {}'
p80
sI216
S"    environment['__file__'] = layer"
p81
sI217
S"    environment['__name__'] = '__restricted__'"
p82
sI218
S'    try:'
p83
sI219
S'        exec(ccode, environment)'
p84
sI220
S'    except HTTP:'
p85
sI221
S'        raise'
p86
sI222
S'    except RestrictedError:'
p87
sI223
S'        # do not encapsulate (obfuscate) the original RestrictedError'
p88
ssS'call'
p89
S'(ccode=<code object <module> at 0x7fe6ac653230, file "/...pplications/KidsAppManager/models/db.py", line 7>, environment={\'A\': <class \'gluon.html.A\'>, \'ANY_OF\': <class \'gluon.validators.ANY_OF\'>, \'ASSIGNJS\': <function ASSIGNJS>, \'AppConfig\': <function AppConfig>, \'Auth\': <class \'gluon.tools.Auth\'>, \'B\': <class \'gluon.html.B\'>, \'BEAUTIFY\': <class \'gluon.html.BEAUTIFY\'>, \'BODY\': <class \'gluon.html.BODY\'>, \'BR\': <class \'gluon.html.BR\'>, \'BUTTON\': <class \'gluon.html.BUTTON\'>, ...}, layer=\'/home/leonardo/Downloads/web2py/applications/KidsAppManager/models/db.py\', scode=<code object <module> at 0x7fe6ac653230, file "/...pplications/KidsAppManager/models/db.py", line 7>)'
p90
sS'func'
p91
S'restricted'
p92
sa(dp93
g68
S'/home/leonardo/Downloads/web2py/applications/KidsAppManager/models/db.py'
p94
sg70
(dp95
S'Field'
p96
S"<class 'pydal.objects.Field'>"
p97
sS'label'
p98
S'undefined'
p99
ssg76
I191
sg77
(dp100
I192
S''
sI193
S')'
sI194
S''
sI185
S"    'frequencia',"
p101
sI186
S"    Field('aluno',db.cadastro, requires=IS_IN_DB(db,'cadastro.id','%(nome_crianca)s'),label='Aluno'),"
p102
sI187
S"    Field('nome',db.cadastro, requires=IS_IN_DB(db,'cadastro.nome_crianca','%(nome_crianca)s'),label='Nome'),"
p103
sI188
S"    Field('data_entrada','datetime'),"
p104
sI189
S"    Field('cartao',requires=IS_NOT_EMPTY(),label='Cart\xc3\xa3o de entrada'),"
p105
sI190
S"    Field('matricula_sala',db.cadastro,IS_IN_DB(db,'cadastro.sala_matriculado'),label='Sala Matriculado'),"
p106
sI191
S"    Field('presenca','boolean',label='Presente?')"
p107
ssg89
S'()'
p108
sg91
S'<module>'
p109
sa(dp110
g68
S'/home/leonardo/Downloads/web2py/gluon/packages/dal/pydal/base.py'
p111
sg70
(dp112
S'fields'
p113
S'(<pydal.objects.Field object>, <pydal.objects.Field object>, <pydal.objects.Field object>, <pydal.objects.Field object>, <pydal.objects.Field object>, <pydal.objects.Field object>)'
p114
sS'self'
p115
S'<DAL uri="mysql:******@localhost/kids">'
p116
sS'args'
p117
g21
sS'tablename'
p118
S"'frequencia'"
p119
sS'table'
p120
g99
sS'self.lazy_define_table'
p121
S'<bound method DAL.lazy_define_table of <DAL uri="mysql:******@localhost/kids">>'
p122
ssg76
I586
sg77
(dp123
I581
S'                                  (tablename, invalid_args))'
p124
sI582
S'        if self._lazy_tables and tablename not in self._LAZY_TABLES:'
p125
sI583
S'            self._LAZY_TABLES[tablename] = (tablename, fields, args)'
p126
sI584
S'            table = None'
p127
sI585
S'        else:'
p128
sI586
S'            table = self.lazy_define_table(tablename, *fields, **args)'
p129
sI587
S'        if tablename not in self.tables:'
p130
sI588
S'            self.tables.append(tablename)'
p131
sI589
S'        return table'
p132
sI590
S''
ssg89
S'(self=<DAL uri="mysql:******@localhost/kids">, tablename=\'frequencia\', *fields=(<pydal.objects.Field object>, <pydal.objects.Field object>, <pydal.objects.Field object>, <pydal.objects.Field object>, <pydal.objects.Field object>, <pydal.objects.Field object>), **args={})'
p133
sg91
S'define_table'
p134
sa(dp135
g68
S'/home/leonardo/Downloads/web2py/gluon/packages/dal/pydal/base.py'
p136
sg70
(dp137
S'polymodel'
p138
S'None'
p139
ssg76
I620
sg77
(dp140
I615
S'            try:'
p141
sI616
S'                GLOBAL_LOCKER.acquire()'
p142
sI617
S'                self._adapter.create_table('
p143
sI618
S'                    table, migrate=migrate,'
p144
sI619
S'                    fake_migrate=fake_migrate,'
p145
sI620
S'                    polymodel=polymodel)'
p146
sI621
S'            finally:'
p147
sI622
S'                GLOBAL_LOCKER.release()'
p148
sI623
S'        else:'
p149
sI624
S'            table._dbt = None'
p150
ssg89
S'(self=<DAL uri="mysql:******@localhost/kids">, tablename=\'frequencia\', *fields=(<pydal.objects.Field object>, <pydal.objects.Field object>, <pydal.objects.Field object>, <pydal.objects.Field object>, <pydal.objects.Field object>, <pydal.objects.Field object>), **args={})'
p151
sg91
S'lazy_define_table'
p152
sa(dp153
g68
S'/home/leonardo/Downloads/web2py/gluon/packages/dal/pydal/adapters/base.py'
p154
sg70
(dp155
S'self'
p156
S'<pydal.adapters.mysql.MySQL object>'
p157
sS'args'
p158
S'(<Table frequencia (id, aluno, nome, data_entrada, cartao, matricula_sala, presenca)>,)'
p159
sS'self.migrator'
p160
S'<pydal.migrator.Migrator object>'
p161
sS'self.migrator.create_table'
p162
S'<bound method Migrator.create_table of <pydal.migrator.Migrator object>>'
p163
sS'kwargs'
p164
S"{'fake_migrate': False, 'migrate': True, 'polymodel': None}"
p165
ssg76
I797
sg77
(dp166
I800
S'        super(SQLAdapter, self)._drop_table_cleanup(table)'
p167
sI801
S'        if table._dbt:'
p168
sI792
S''
sI793
S'    def bulk_insert(self, table, items):'
p169
sI794
S'        return [self.insert(table, item) for item in items]'
p170
sI795
S''
sI796
S'    def create_table(self, *args, **kwargs):'
p171
sI797
S'        return self.migrator.create_table(*args, **kwargs)'
p172
sI798
S''
sI799
S'    def _drop_table_cleanup(self, table):'
p173
ssg89
S"(self=<pydal.adapters.mysql.MySQL object>, *args=(<Table frequencia (id, aluno, nome, data_entrada, cartao, matricula_sala, presenca)>,), **kwargs={'fake_migrate': False, 'migrate': True, 'polymodel': None})"
p174
sg91
S'create_table'
p175
sa(dp176
g68
S'/home/leonardo/Downloads/web2py/gluon/packages/dal/pydal/migrator.py'
p177
sg70
(dp178
S'fake_migrate'
p179
S'False'
p180
ssg76
I314
sg77
(dp181
I309
S'            if sql_fields != sql_fields_old:'
p182
sI310
S'                self.migrate_table('
p183
sI311
S'                    table,'
p184
sI312
S'                    sql_fields, sql_fields_old,'
p185
sI313
S'                    sql_fields_aux, None,'
p186
sI314
S'                    fake_migrate=fake_migrate'
p187
sI315
S'                    )'
p188
sI316
S'        return query'
p189
sI317
S''
sI318
S'    def _fix(self, item):'
p190
ssg89
S'(self=<pydal.migrator.Migrator object>, table=<Table frequencia (id, aluno, nome, data_entrada, cartao, matricula_sala, presenca)>, migrate=True, fake_migrate=False, polymodel=None)'
p191
sg91
g175
sa(dp192
g68
S'/home/leonardo/Downloads/web2py/gluon/packages/dal/pydal/migrator.py'
p193
sg70
(dp194
S'self'
p195
S'<pydal.migrator.Migrator object>'
p196
sS'self.adapter.execute'
p197
S'<bound method MySQL.wrap of <pydal.adapters.mysql.MySQL object>>'
p198
sS'self.adapter'
p199
S'<pydal.adapters.mysql.MySQL object>'
p200
sS'sub_query'
p201
S"'ALTER TABLE `frequencia` DROP COLUMN `aluno_frequencia`;'"
p202
ssg76
I447
sg77
(dp203
I448
S'                        # Caveat: mysql, oracle and firebird'
p204
sI449
S'                        # do not allow multiple alter table'
p205
sI450
S'                        # in one transaction so we must commit'
p206
sI451
S'                        # partial transactions and'
p207
sI442
S'                    if fake_migrate:'
p208
sI443
S'                        if db._adapter.commit_on_alter_table:'
p209
sI444
S'                            self.save_dbt(table, sql_fields_current)'
p210
sI445
S"                        self.log('faked!\\n', table)"
p211
sI446
S'                    else:'
p212
sI447
S'                        self.adapter.execute(sub_query)'
p213
ssg89
S"(self=<pydal.migrator.Migrator object>, table=<Table frequencia (id, aluno, nome, data_entrada, cartao, matricula_sala, presenca)>, sql_fields={'aluno': {'length': 512, 'notnull': False, 'raw_rname': 'aluno', 'rname': '`aluno`', 'sortable': 2, 'sql': 'INT  , INDEX `aluno__idx` (`aluno`), FOREIGN KEY...`) REFERENCES `cadastro` (`id`) ON DELETE CASCADE', 'type': 'reference cadastro', 'unique': False}, 'cartao': {'length': 512, 'notnull': False, 'raw_rname': 'cartao', 'rname': '`cartao`', 'sortable': 5, 'sql': 'VARCHAR(512)', 'type': 'string', 'unique': False}, 'data_entrada': {'length': 512, 'notnull': False, 'raw_rname': 'data_entrada', 'rname': '`data_entrada`', 'sortable': 4, 'sql': 'DATETIME', 'type': 'datetime', 'unique': False}, 'id': {'length': 512, 'notnull': False, 'raw_rname': 'id', 'rname': '`id`', 'sortable': 1, 'sql': 'INT AUTO_INCREMENT NOT NULL', 'type': 'id', 'unique': False}, 'matricula_sala': {'length': <gluon.validators.IS_IN_DB object>, 'notnull': False, 'raw_rname': 'matricula_sala', 'rname': '`matricula_sala`', 'sortable': 6, 'sql': 'INT  , INDEX `matricula_sala__idx` (`matricula_s...`) REFERENCES `cadastro` (`id`) ON DELETE CASCADE', 'type': 'reference cadastro', 'unique': False}, 'nome': {'length': 512, 'notnull': False, 'raw_rname': 'nome', 'rname': '`nome`', 'sortable': 3, 'sql': 'INT  , INDEX `nome__idx` (`nome`), FOREIGN KEY (...`) REFERENCES `cadastro` (`id`) ON DELETE CASCADE', 'type': 'reference cadastro', 'unique': False}, 'presenca': {'length': 512, 'notnull': False, 'raw_rname': 'presenca', 'rname': '`presenca`', 'sortable': 7, 'sql': 'CHAR(1)', 'type': 'boolean', 'unique': False}}, sql_fields_old={'aluno': {'length': 512, 'notnull': False, 'raw_rname': 'aluno', 'rname': '`aluno`', 'sortable': 2, 'sql': 'INT  , INDEX `aluno__idx` (`aluno`), FOREIGN KEY...`) REFERENCES `cadastro` (`id`) ON DELETE CASCADE', 'type': 'reference cadastro', 'unique': False}, 'aluno_frequencia': {'length': 512, 'notnull': False, 'raw_rname': 'aluno_frequencia', 'rname': '`aluno_frequencia`', 'sortable': 2, 'sql': 'INT  , INDEX `aluno_frequencia__idx` (`aluno_fre...`) REFERENCES `cadastro` (`id`) ON DELETE CASCADE', 'type': 'reference cadastro', 'unique': False}, 'cartao': {'length': 512, 'notnull': False, 'raw_rname': 'cartao', 'rname': '`cartao`', 'sortable': 5, 'sql': 'VARCHAR(512)', 'type': 'string', 'unique': False}, 'data_entrada': {'length': 512, 'notnull': False, 'raw_rname': 'data_entrada', 'rname': '`data_entrada`', 'sortable': 4, 'sql': 'DATETIME', 'type': 'datetime', 'unique': False}, 'id': {'length': 512, 'notnull': False, 'raw_rname': 'id', 'rname': '`id`', 'sortable': 1, 'sql': 'INT AUTO_INCREMENT NOT NULL', 'type': 'id', 'unique': False}, 'matricula_sala': {'length': <gluon.validators.IS_IN_DB object>, 'notnull': False, 'raw_rname': 'matricula_sala', 'rname': '`matricula_sala`', 'sortable': 6, 'sql': 'INT  , INDEX `matricula_sala__idx` (`matricula_s...`) REFERENCES `cadastro` (`id`) ON DELETE CASCADE', 'type': 'reference cadastro', 'unique': False}, 'nome': {'length': 512, 'notnull': False, 'raw_rname': 'nome', 'rname': '`nome`', 'sortable': 3, 'sql': 'INT  , INDEX `nome__idx` (`nome`), FOREIGN KEY (...`) REFERENCES `cadastro` (`id`) ON DELETE CASCADE', 'type': 'reference cadastro', 'unique': False}, 'nome_frequencia': {'length': 512, 'notnull': False, 'raw_rname': 'nome_frequencia', 'rname': '`nome_frequencia`', 'sortable': 3, 'sql': 'INT  , INDEX `nome_frequencia__idx` (`nome_frequ...`) REFERENCES `cadastro` (`id`) ON DELETE CASCADE', 'type': 'reference cadastro', 'unique': False}, 'presenca': {'length': 512, 'notnull': False, 'raw_rname': 'presenca', 'rname': '`presenca`', 'sortable': 7, 'sql': 'CHAR(1)', 'type': 'boolean', 'unique': False}}, sql_fields_aux={'aluno': {'sql': 'INT  , INDEX `aluno__idx` (`aluno`), FOREIGN KEY...`) REFERENCES `cadastro` (`id`) ON DELETE CASCADE'}, 'cartao': {'sql': 'VARCHAR(512)'}, 'data_entrada': {'sql': 'DATETIME'}, 'id': {'sql': 'INT AUTO_INCREMENT NOT NULL'}, 'matricula_sala': {'sql': 'INT  , INDEX `matricula_sala__idx` (`matricula_s...`) REFERENCES `cadastro` (`id`) ON DELETE CASCADE'}, 'nome': {'sql': 'INT  , INDEX `nome__idx` (`nome`), FOREIGN KEY (...`) REFERENCES `cadastro` (`id`) ON DELETE CASCADE'}, 'presenca': {'sql': 'CHAR(1)'}}, logfile=None, fake_migrate=False)"
p214
sg91
S'migrate_table'
p215
sa(dp216
g68
S'/home/leonardo/Downloads/web2py/gluon/packages/dal/pydal/adapters/__init__.py'
p217
sg70
(dp218
S'kwargs'
p219
g21
sS'args'
p220
S"(<pydal.adapters.mysql.MySQL object>, 'ALTER TABLE `frequencia` DROP COLUMN `aluno_frequencia`;')"
p221
sS'f'
S'<function execute>'
p222
ssg76
I67
sg77
(dp223
I64
S'            if len(args) > 1:'
p224
sI65
S'                raise ValueError(args[1])'
p225
sI66
S"            raise RuntimeError('no connection available')"
p226
sI67
S'        return f(*args, **kwargs)'
p227
sI68
S'    return wrap'
p228
sI69
S''
sI70
S''
sI71
S'from .base import SQLAdapter, NoSQLAdapter'
p229
sI62
S'    def wrap(*args, **kwargs):'
p230
sI63
S'        if not args[0].connection:'
p231
ssg89
S"(*args=(<pydal.adapters.mysql.MySQL object>, 'ALTER TABLE `frequencia` DROP COLUMN `aluno_frequencia`;'), **kwargs={})"
p232
sg91
S'wrap'
p233
sa(dp234
g68
S'/home/leonardo/Downloads/web2py/gluon/packages/dal/pydal/adapters/base.py'
p235
sg70
(dp236
S'rv'
p237
g99
sS'self'
p238
S'<pydal.adapters.mysql.MySQL object>'
p239
sS'args'
p240
S"('ALTER TABLE `frequencia` DROP COLUMN `aluno_frequencia`;',)"
p241
sS'self.cursor'
p242
S'<gluon.contrib.pymysql.cursors.Cursor object>'
p243
sS'command'
p244
S"'ALTER TABLE `frequencia` DROP COLUMN `aluno_frequencia`;'"
p245
sS'self.cursor.execute'
p246
S'<bound method Cursor.execute of <gluon.contrib.pymysql.cursors.Cursor object>>'
p247
sS'kwargs'
p248
g21
ssg76
I412
sg77
(dp249
I416
S''
sI407
S'    def execute(self, *args, **kwargs):'
p250
sI408
S'        command = self.filter_sql_command(args[0])'
p251
sI409
S'        handlers = self._build_handlers_for_execution()'
p252
sI410
S'        for handler in handlers:'
p253
sI411
S'            handler.before_execute(command)'
p254
sI412
S'        rv = self.cursor.execute(command, *args[1:], **kwargs)'
p255
sI413
S'        for handler in handlers:'
p256
sI414
S'            handler.after_execute(command)'
p257
sI415
S'        return rv'
p258
ssg89
S"(self=<pydal.adapters.mysql.MySQL object>, *args=('ALTER TABLE `frequencia` DROP COLUMN `aluno_frequencia`;',), **kwargs={})"
p259
sg91
S'execute'
p260
sa(dp261
g68
S'/home/leonardo/Downloads/web2py/gluon/contrib/pymysql/cursors.py'
p262
sg70
(dp263
S'query'
p264
S"'ALTER TABLE `frequencia` DROP COLUMN `aluno_frequencia`;'"
p265
sS'self'
p266
S'<gluon.contrib.pymysql.cursors.Cursor object>'
p267
sS'result'
p268
g99
sS'self._query'
p269
S'<bound method Cursor._query of <gluon.contrib.pymysql.cursors.Cursor object>>'
p270
ssg76
I166
sg77
(dp271
I161
S'        while self.nextset():'
p272
sI162
S'            pass'
p273
sI163
S''
sI164
S'        query = self.mogrify(query, args)'
p274
sI165
S''
sI166
S'        result = self._query(query)'
p275
sI167
S'        self._executed = query'
p276
sI168
S'        return result'
p277
sI169
S''
sI170
S'    def executemany(self, query, args):'
p278
ssg89
S"(self=<gluon.contrib.pymysql.cursors.Cursor object>, query='ALTER TABLE `frequencia` DROP COLUMN `aluno_frequencia`;', args=None)"
p279
sg91
g260
sa(dp280
g68
S'/home/leonardo/Downloads/web2py/gluon/contrib/pymysql/cursors.py'
p281
sg70
(dp282
S'q'
S"'ALTER TABLE `frequencia` DROP COLUMN `aluno_frequencia`;'"
p283
sS'conn.query'
p284
S'<bound method Connection.query of <gluon.contrib.pymysql.connections.Connection object>>'
p285
sS'conn'
p286
S'<gluon.contrib.pymysql.connections.Connection object>'
p287
ssg76
I322
sg77
(dp288
I320
S'        conn = self._get_db()'
p289
sI321
S'        self._last_executed = q'
p290
sI322
S'        conn.query(q)'
p291
sI323
S'        self._do_get_result()'
p292
sI324
S'        return self.rowcount'
p293
sI325
S''
sI326
S'    def _do_get_result(self):'
p294
sI317
S'        self.rownumber = r'
p295
sI318
S''
sI319
S'    def _query(self, q):'
p296
ssg89
S"(self=<gluon.contrib.pymysql.cursors.Cursor object>, q='ALTER TABLE `frequencia` DROP COLUMN `aluno_frequencia`;')"
p297
sg91
S'_query'
p298
sa(dp299
g68
S'/home/leonardo/Downloads/web2py/gluon/contrib/pymysql/connections.py'
p300
sg70
(dp301
S'self._read_query_result'
p302
S'<bound method Connection._read_query_result of <...n.contrib.pymysql.connections.Connection object>>'
p303
sS'self'
p304
S'<gluon.contrib.pymysql.connections.Connection object>'
p305
sS'unbuffered'
p306
g180
sS'self._affected_rows'
p307
S'0'
ssg76
I835
sg77
(dp308
I832
S'            else:'
p309
sI833
S"                sql = sql.encode(self.encoding, 'surrogateescape')"
p310
sI834
S'        self._execute_command(COMMAND.COM_QUERY, sql)'
p311
sI835
S'        self._affected_rows = self._read_query_result(unbuffered=unbuffered)'
p312
sI836
S'        return self._affected_rows'
p313
sI837
S''
sI838
S'    def next_result(self, unbuffered=False):'
p314
sI839
S'        self._affected_rows = self._read_query_result(unbuffered=unbuffered)'
p315
sI830
S'            if PY2:'
p316
sI831
S'                sql = sql.encode(self.encoding)'
p317
ssg89
S"(self=<gluon.contrib.pymysql.connections.Connection object>, sql='ALTER TABLE `frequencia` DROP COLUMN `aluno_frequencia`;', unbuffered=False)"
p318
sg91
S'query'
p319
sa(dp320
g68
S'/home/leonardo/Downloads/web2py/gluon/contrib/pymysql/connections.py'
p321
sg70
(dp322
S'result.read'
p323
S'<bound method MySQLResult.read of <gluon.contrib.pymysql.connections.MySQLResult object>>'
p324
sS'result'
p325
S'<gluon.contrib.pymysql.connections.MySQLResult object>'
p326
ssg76
I1019
sg77
(dp327
I1014
S'                result.unbuffered_active = False'
p328
sI1015
S'                result.connection = None'
p329
sI1016
S'                raise'
p330
sI1017
S'        else:'
p331
sI1018
S'            result = MySQLResult(self)'
p332
sI1019
S'            result.read()'
p333
sI1020
S'        self._result = result'
p334
sI1021
S'        if result.server_status is not None:'
p335
sI1022
S'            self.server_status = result.server_status'
p336
sI1023
S'        return result.affected_rows'
p337
ssg89
S'(self=<gluon.contrib.pymysql.connections.Connection object>, unbuffered=False)'
p338
sg91
S'_read_query_result'
p339
sa(dp340
g68
S'/home/leonardo/Downloads/web2py/gluon/contrib/pymysql/connections.py'
p341
sg70
(dp342
S'first_packet'
p343
g99
sS'self'
p344
S'<gluon.contrib.pymysql.connections.MySQLResult object>'
p345
sS'self.connection'
p346
S'None'
p347
sS'self.connection._read_packet'
p348
g99
ssg76
I1302
sg77
(dp349
I1297
S'        if self.unbuffered_active:'
p350
sI1298
S'            self._finish_unbuffered_query()'
p351
sI1299
S''
sI1300
S'    def read(self):'
p352
sI1301
S'        try:'
p353
sI1302
S'            first_packet = self.connection._read_packet()'
p354
sI1303
S''
sI1304
S'            if first_packet.is_ok_packet():'
p355
sI1305
S'                self._read_ok_packet(first_packet)'
p356
sI1306
S'            elif first_packet.is_load_local_packet():'
p357
ssg89
S'(self=<gluon.contrib.pymysql.connections.MySQLResult object>)'
p358
sg91
S'read'
p359
sa(dp360
g68
S'/home/leonardo/Downloads/web2py/gluon/contrib/pymysql/connections.py'
p361
sg70
(dp362
S'packet'
p363
S'<gluon.contrib.pymysql.connections.MysqlPacket object>'
p364
sS'packet.check_error'
p365
S'<bound method MysqlPacket.check_error of <gluon.contrib.pymysql.connections.MysqlPacket object>>'
p366
ssg76
I981
sg77
(dp367
I976
S'                continue'
p368
sI977
S'            if bytes_to_read < MAX_PACKET_LEN:'
p369
sI978
S'                break'
p370
sI979
S''
sI980
S'        packet = packet_type(buff, self.encoding)'
p371
sI981
S'        packet.check_error()'
p372
sI982
S'        return packet'
p373
sI983
S''
sI984
S'    def _read_bytes(self, num_bytes):'
p374
sI985
S'        self._sock.settimeout(self._read_timeout)'
p375
ssg89
S"(self=<gluon.contrib.pymysql.connections.Connection object>, packet_type=<class 'gluon.contrib.pymysql.connections.MysqlPacket'>)"
p376
sg91
S'_read_packet'
p377
sa(dp378
g68
S'/home/leonardo/Downloads/web2py/gluon/contrib/pymysql/connections.py'
p379
sg70
(dp380
S'self._data'
p381
S'"\\xffz\\x04#42S02Table \'kids.frequencia\' doesn\'t exist"'
p382
sS'self'
p383
S'<gluon.contrib.pymysql.connections.MysqlPacket object>'
p384
sS'global err'
p385
S"<module 'gluon.contrib.pymysql.err' from '/home/.../Downloads/web2py/gluon/contrib/pymysql/err.pyc'>"
p386
sS'err.raise_mysql_exception'
p387
S'<function raise_mysql_exception>'
p388
ssg76
I393
sg77
(dp389
I388
S'        if self.is_error_packet():'
p390
sI389
S'            self.rewind()'
p391
sI390
S'            self.advance(1)  # field_count == error (we already know that)'
p392
sI391
S'            errno = self.read_uint16()'
p393
sI392
S'            if DEBUG: print("errno =", errno)'
p394
sI393
S'            err.raise_mysql_exception(self._data)'
p395
sI394
S''
sI395
S'    def dump(self):'
p396
sI396
S'        dump_packet(self._data)'
p397
sI397
S''
ssg89
S'(self=<gluon.contrib.pymysql.connections.MysqlPacket object>)'
p398
sg91
S'check_error'
p399
sa(dp400
g68
S'/home/leonardo/Downloads/web2py/gluon/contrib/pymysql/err.py'
p401
sg70
(dp402
S'errorclass'
p403
S"<class 'gluon.contrib.pymysql.err.ProgrammingError'>"
p404
sS'errno'
p405
S'1146'
p406
sS'errval'
p407
S'u"Table \'kids.frequencia\' doesn\'t exist"'
p408
ssg76
I107
sg77
(dp409
I98
S'def raise_mysql_exception(data):'
p410
sI99
S"    errno = struct.unpack('<h', data[1:3])[0]"
p411
sI100
S'    is_41 = data[3:4] == b"#"'
p412
sI101
S'    if is_41:'
p413
sI102
S'        # client protocol 4.1'
p414
sI103
S"        errval = data[9:].decode('utf-8', 'replace')"
p415
sI104
S'    else:'
p416
sI105
S"        errval = data[3:].decode('utf-8', 'replace')"
p417
sI106
S'    errorclass = error_map.get(errno, InternalError)'
p418
sI107
S'    raise errorclass(errno, errval)'
p419
ssg89
S'(data="\\xffz\\x04#42S02Table \'kids.frequencia\' doesn\'t exist")'
p420
sg91
S'raise_mysql_exception'
p421
sasS'pyver'
p422
S'Python 2.7.15rc1: /usr/bin/python (prefix: /usr)'
p423
sS'session'
p424
g63
(S's\xbb\x01\x00\x00<div><table><tr><td style="font-weight:bold;vertical-align:top;">flash</td><td style="vertical-align:top;">:</td><td><div>None</div></td></tr><tr><td style="font-weight:bold;vertical-align:top;">last_orderby</td><td style="vertical-align:top;">:</td><td><div>None</div></td></tr><tr><td style="font-weight:bold;vertical-align:top;">last_query</td><td style="vertical-align:top;">:</td><td><div>db.cadastro.id&gt;0</div></td></tr></table></div>'
tRp425
sS'etype'
p426
S"<class 'gluon.contrib.pymysql.err.ProgrammingError'>"
p427
sS'date'
p428
S'Wed Jun 13 22:57:27 2018'
p429
sS'response'
p430
g63
(S's\xfd\x1a\x00\x00<div><table><tr><td style="font-weight:bold;vertical-align:top;">body</td><td style="vertical-align:top;">:</td><td><div>&lt;cStringIO.StringO object at 0x7fe6ac47fa78&gt;</div></td></tr><tr><td style="font-weight:bold;vertical-align:top;">cookies</td><td style="vertical-align:top;">:</td><td><div><table><tr><td style="font-weight:bold;vertical-align:top;">session_id_kidsappmanager</td><td style="vertical-align:top;">:</td><td><div>127.0.0.1-6f86a6a5-f09c-428f-820a-1e6edcefd84e<table><tr><td style="font-weight:bold;vertical-align:top;">comment</td><td style="vertical-align:top;">:</td><td><div></div></td></tr><tr><td style="font-weight:bold;vertical-align:top;">domain</td><td style="vertical-align:top;">:</td><td><div></div></td></tr><tr><td style="font-weight:bold;vertical-align:top;">expires</td><td style="vertical-align:top;">:</td><td><div></div></td></tr><tr><td style="font-weight:bold;vertical-align:top;">httponly</td><td style="vertical-align:top;">:</td><td><div></div></td></tr><tr><td style="font-weight:bold;vertical-align:top;">max-age</td><td style="vertical-align:top;">:</td><td><div></div></td></tr><tr><td style="font-weight:bold;vertical-align:top;">path</td><td style="vertical-align:top;">:</td><td><div>/</div></td></tr><tr><td style="font-weight:bold;vertical-align:top;">secure</td><td style="vertical-align:top;">:</td><td><div></div></td></tr><tr><td style="font-weight:bold;vertical-align:top;">version</td><td style="vertical-align:top;">:</td><td><div></div></td></tr></table></div></td></tr></table></div></td></tr><tr><td style="font-weight:bold;vertical-align:top;">delimiters</td><td style="vertical-align:top;">:</td><td><div><table><tr><td><div>{{</div></td></tr><tr><td><div>}}</div></td></tr></table></div></td></tr><tr><td style="font-weight:bold;vertical-align:top;">files</td><td style="vertical-align:top;">:</td><td><div><table></table></div></td></tr><tr><td style="font-weight:bold;vertical-align:top;">flash</td><td style="vertical-align:top;">:</td><td><div></div></td></tr><tr><td style="font-weight:bold;vertical-align:top;">form_label_separator</td><td style="vertical-align:top;">:</td><td><div></div></td></tr><tr><td style="font-weight:bold;vertical-align:top;">formstyle</td><td style="vertical-align:top;">:</td><td><div>bootstrap4_inline</div></td></tr><tr><td style="font-weight:bold;vertical-align:top;">generic_patterns</td><td style="vertical-align:top;">:</td><td><div><table><tr><td><div>*</div></td></tr></table></div></td></tr><tr><td style="font-weight:bold;vertical-align:top;">google_analytics_id</td><td style="vertical-align:top;">:</td><td><div>None</div></td></tr><tr><td style="font-weight:bold;vertical-align:top;">headers</td><td style="vertical-align:top;">:</td><td><div><table><tr><td style="font-weight:bold;vertical-align:top;">X-Powered-By</td><td style="vertical-align:top;">:</td><td><div>web2py</div></td></tr></table></div></td></tr><tr><td style="font-weight:bold;vertical-align:top;">menu</td><td style="vertical-align:top;">:</td><td><div><table></table></div></td></tr><tr><td style="font-weight:bold;vertical-align:top;">meta</td><td style="vertical-align:top;">:</td><td><div><table><tr><td style="font-weight:bold;vertical-align:top;">author</td><td style="vertical-align:top;">:</td><td><div>Your Name &lt;you@example.com&gt;</div></td></tr><tr><td style="font-weight:bold;vertical-align:top;">description</td><td style="vertical-align:top;">:</td><td><div>a cool new app</div></td></tr><tr><td style="font-weight:bold;vertical-align:top;">generator</td><td style="vertical-align:top;">:</td><td><div>Web2py Web Framework</div></td></tr><tr><td style="font-weight:bold;vertical-align:top;">keywords</td><td style="vertical-align:top;">:</td><td><div><table><tr><td><div>web2py</div></td></tr><tr><td><div>python</div></td></tr><tr><td><div>framework</div></td></tr></table></div></td></tr></table></div></td></tr><tr><td style="font-weight:bold;vertical-align:top;">models_to_run</td><td style="vertical-align:top;">:</td><td><div><table><tr><td><div>^\\w+\\.py$</div></td></tr><tr><td><div>^appadmin/\\w+\\.py$</div></td></tr><tr><td><div>^appadmin/index/\\w+\\.py$</div></td></tr></table></div></td></tr><tr><td style="font-weight:bold;vertical-align:top;">postprocessing</td><td style="vertical-align:top;">:</td><td><div><table></table></div></td></tr><tr><td style="font-weight:bold;vertical-align:top;">session_client</td><td style="vertical-align:top;">:</td><td><div>127.0.0.1</div></td></tr><tr><td style="font-weight:bold;vertical-align:top;">session_cookie_compression_level</td><td style="vertical-align:top;">:</td><td><div>None</div></td></tr><tr><td style="font-weight:bold;vertical-align:top;">session_cookie_expires</td><td style="vertical-align:top;">:</td><td><div>None</div></td></tr><tr><td style="font-weight:bold;vertical-align:top;">session_data_name</td><td style="vertical-align:top;">:</td><td><div>session_data_kidsappmanager</div></td></tr><tr><td style="font-weight:bold;vertical-align:top;">session_file</td><td style="vertical-align:top;">:</td><td><div>&lt;open file &#x27;/home/leonardo/Downloads/web2py/applications/KidsAppManager/sessions/1fd/0ec/127.0.0.1-6f86a6a5-f09c-428f-820a-1e6edcefd84e&#x27;, mode &#x27;rb+&#x27; at 0x7fe6ac603db0&gt;</div></td></tr><tr><td style="font-weight:bold;vertical-align:top;">session_filename</td><td style="vertical-align:top;">:</td><td><div>/home/leonardo/Downloads/web2py/applications/KidsAppManager/sessions/127.0.0.1-6f86a6a5-f09c-428f-820a-1e6edcefd84e</div></td></tr><tr><td style="font-weight:bold;vertical-align:top;">session_hash</td><td style="vertical-align:top;">:</td><td><div>81310c089f1b0a4792f45870dadf4696</div></td></tr><tr><td style="font-weight:bold;vertical-align:top;">session_id</td><td style="vertical-align:top;">:</td><td><div>127.0.0.1-6f86a6a5-f09c-428f-820a-1e6edcefd84e</div></td></tr><tr><td style="font-weight:bold;vertical-align:top;">session_id_name</td><td style="vertical-align:top;">:</td><td><div>session_id_kidsappmanager</div></td></tr><tr><td style="font-weight:bold;vertical-align:top;">session_locked</td><td style="vertical-align:top;">:</td><td><div>True</div></td></tr><tr><td style="font-weight:bold;vertical-align:top;">session_masterapp</td><td style="vertical-align:top;">:</td><td><div>KidsAppManager</div></td></tr><tr><td style="font-weight:bold;vertical-align:top;">session_new</td><td style="vertical-align:top;">:</td><td><div>False</div></td></tr><tr><td style="font-weight:bold;vertical-align:top;">session_storage_type</td><td style="vertical-align:top;">:</td><td><div>file</div></td></tr><tr><td style="font-weight:bold;vertical-align:top;">status</td><td style="vertical-align:top;">:</td><td><div>200</div></td></tr><tr><td style="font-weight:bold;vertical-align:top;">view</td><td style="vertical-align:top;">:</td><td><div>appadmin/index.html</div></td></tr></table></div>'
tRp431
sS'locals'
p432
(dp433
S'errorclass'
p434
S"<class 'gluon.contrib.pymysql.err.ProgrammingError'>"
p435
sS'errno'
p436
S'1146'
p437
sS'is_41'
p438
S'True'
p439
sS'errval'
p440
S'u"Table \'kids.frequencia\' doesn\'t exist"'
p441
sS'data'
p442
S'"\\xffz\\x04#42S02Table \'kids.frequencia\' doesn\'t exist"'
p443
sssS'traceback'
p444
S'Traceback (most recent call last):\n  File "/home/leonardo/Downloads/web2py/gluon/restricted.py", line 219, in restricted\n    exec(ccode, environment)\n  File "/home/leonardo/Downloads/web2py/applications/KidsAppManager/models/db.py", line 191, in <module>\n    Field(\'presenca\',\'boolean\',label=\'Presente?\')\n  File "/home/leonardo/Downloads/web2py/gluon/packages/dal/pydal/base.py", line 586, in define_table\n    table = self.lazy_define_table(tablename, *fields, **args)\n  File "/home/leonardo/Downloads/web2py/gluon/packages/dal/pydal/base.py", line 620, in lazy_define_table\n    polymodel=polymodel)\n  File "/home/leonardo/Downloads/web2py/gluon/packages/dal/pydal/adapters/base.py", line 797, in create_table\n    return self.migrator.create_table(*args, **kwargs)\n  File "/home/leonardo/Downloads/web2py/gluon/packages/dal/pydal/migrator.py", line 314, in create_table\n    fake_migrate=fake_migrate\n  File "/home/leonardo/Downloads/web2py/gluon/packages/dal/pydal/migrator.py", line 447, in migrate_table\n    self.adapter.execute(sub_query)\n  File "/home/leonardo/Downloads/web2py/gluon/packages/dal/pydal/adapters/__init__.py", line 67, in wrap\n    return f(*args, **kwargs)\n  File "/home/leonardo/Downloads/web2py/gluon/packages/dal/pydal/adapters/base.py", line 412, in execute\n    rv = self.cursor.execute(command, *args[1:], **kwargs)\n  File "/home/leonardo/Downloads/web2py/gluon/contrib/pymysql/cursors.py", line 166, in execute\n    result = self._query(query)\n  File "/home/leonardo/Downloads/web2py/gluon/contrib/pymysql/cursors.py", line 322, in _query\n    conn.query(q)\n  File "/home/leonardo/Downloads/web2py/gluon/contrib/pymysql/connections.py", line 835, in query\n    self._affected_rows = self._read_query_result(unbuffered=unbuffered)\n  File "/home/leonardo/Downloads/web2py/gluon/contrib/pymysql/connections.py", line 1019, in _read_query_result\n    result.read()\n  File "/home/leonardo/Downloads/web2py/gluon/contrib/pymysql/connections.py", line 1302, in read\n    first_packet = self.connection._read_packet()\n  File "/home/leonardo/Downloads/web2py/gluon/contrib/pymysql/connections.py", line 981, in _read_packet\n    packet.check_error()\n  File "/home/leonardo/Downloads/web2py/gluon/contrib/pymysql/connections.py", line 393, in check_error\n    err.raise_mysql_exception(self._data)\n  File "/home/leonardo/Downloads/web2py/gluon/contrib/pymysql/err.py", line 107, in raise_mysql_exception\n    raise errorclass(errno, errval)\nProgrammingError: (1146, u"Table \'kids.frequencia\' doesn\'t exist")\n'
p445
s.