(dp1
S'output'
p2
S"<type 'exceptions.TypeError'> cannot concatenate 'str' and 'int' objects"
p3
sS'layer'
p4
S'/home/leonardo/Downloads/web2py/applications/KidsAppManager/controllers/default.py'
p5
sS'code'
p6
S'<code object <module> at 0x7f05b8886b30, file "/home/leonardo/Downloads/web2py/applications/KidsAppManager/controllers/default.py", line 9>'
p7
sS'snapshot'
p8
(dp9
sS'traceback'
p10
S'Traceback (most recent call last):\n  File "/home/leonardo/Downloads/web2py/gluon/restricted.py", line 219, in restricted\n    exec(ccode, environment)\n  File "/home/leonardo/Downloads/web2py/applications/KidsAppManager/controllers/default.py", line 134, in <module>\n  File "/home/leonardo/Downloads/web2py/gluon/globals.py", line 419, in <lambda>\n    self._caller = lambda f: f()\n  File "/home/leonardo/Downloads/web2py/applications/KidsAppManager/controllers/default.py", line 117, in lista_presenca\n    campo = db(db.cadastro.nome_crianca == campoNome ).select(db.cadastro.nome_crianca, db.cadastro.sala_matriculado[\'sala_matriculado\'], orderby=[db.cadastro.nome_crianca]).first()\n  File "/home/leonardo/Downloads/web2py/gluon/packages/dal/pydal/objects.py", line 1338, in __getitem__\n    return self[i:i + 1]\nTypeError: cannot concatenate \'str\' and \'int\' objects\n'
p11
s.