(dp1
S'output'
p2
S"<type 'exceptions.TypeError'> grid() got an unexpected keyword argument 'query2'"
p3
sS'layer'
p4
S'/home/leonardo/Downloads/web2py/applications/KidsAppManager/controllers/default.py'
p5
sS'code'
p6
S'<code object <module> at 0x7f5d9c43d5b0, file "/home/leonardo/Downloads/web2py/applications/KidsAppManager/controllers/default.py", line 8>'
p7
sS'snapshot'
p8
(dp9
sS'traceback'
p10
S'Traceback (most recent call last):\n  File "/home/leonardo/Downloads/web2py/gluon/restricted.py", line 219, in restricted\n    exec(ccode, environment)\n  File "/home/leonardo/Downloads/web2py/applications/KidsAppManager/controllers/default.py", line 134, in <module>\n  File "/home/leonardo/Downloads/web2py/gluon/globals.py", line 419, in <lambda>\n    self._caller = lambda f: f()\n  File "/home/leonardo/Downloads/web2py/gluon/tools.py", line 3982, in f\n    return action(*a, **b)\n  File "/home/leonardo/Downloads/web2py/applications/KidsAppManager/controllers/default.py", line 90, in entrada\n    form = SQLFORM.grid(query2=query2)\nTypeError: grid() got an unexpected keyword argument \'query2\'\n'
p11
s.