(dp1
S'output'
p2
S"<type 'exceptions.NameError'> global name 'Treu' is not defined"
p3
sS'layer'
p4
S'/home/leonardo/Downloads/web2py/applications/KidsAppManager/controllers/default.py'
p5
sS'code'
p6
S'<code object <module> at 0x7fcc983c6ab0, file "/home/leonardo/Downloads/web2py/applications/KidsAppManager/controllers/default.py", line 9>'
p7
sS'snapshot'
p8
(dp9
sS'traceback'
p10
S'Traceback (most recent call last):\n  File "/home/leonardo/Downloads/web2py/gluon/restricted.py", line 219, in restricted\n    exec(ccode, environment)\n  File "/home/leonardo/Downloads/web2py/applications/KidsAppManager/controllers/default.py", line 117, in <module>\n  File "/home/leonardo/Downloads/web2py/gluon/globals.py", line 419, in <lambda>\n    self._caller = lambda f: f()\n  File "/home/leonardo/Downloads/web2py/applications/KidsAppManager/controllers/default.py", line 72, in entrada\n    return dict(grid=SQLFORM.smartgrid(db.frequencia,linked_tables=[\'frequencia\'],user_signature=Treu),editable=False, deletable=False)\nNameError: global name \'Treu\' is not defined\n'
p11
s.