(dp1
S'output'
p2
S"<type 'exceptions.NameError'> name 'x' is not defined"
p3
sS'layer'
p4
S'/home/leonardo/Downloads/web2py/applications/KidsAppManager/views/default/busca_aluno.html'
p5
sS'code'
p6
S'response.write(\'<!DOCTYPE html>\\n<!--[if (gt IE 9)|!(IE)]><!-->\\n<html class="no-js" lang="\', escape=False)\nresponse.write(T.accepted_language or \'en\')\nresponse.write(\'">\\n<!--<![endif]-->\\n\\n<head>\\n  <meta charset="utf-8">\\n  <!-- www.phpied.com/conditional-comments-block-downloads/ -->\\n  <!-- Always force latest IE rendering engine\\n         (even in intranet) & Chrome Frame\\n         Remove this if you use the .htaccess -->\\n  <meta http-equiv="X-UA-Compatible" content="IE=edge\', escape=False)\nresponse.write(not request.is_local and \',chrome=1\' or \'\')\nresponse.write(\'">\\n  <!--  Mobile Viewport Fix\\n          j.mp/mobileviewport & davidbcalhoun.com/2010/viewport-metatag\\n          device-width: Occupy full width of the screen in its current orientation\\n          initial-scale = 1.0 retains dimensions instead of zooming out if page height > device height\\n          user-scalable = yes allows the user to zoom in -->\\n  <meta name="viewport" content="width=device-width, initial-scale=1.0">\\n  <title>\', escape=False)\nresponse.write(response.title or request.application)\nresponse.write(\'</title>\\n  <!-- http://dev.w3.org/html5/markup/meta.name.html -->\\n  <meta name="application-name" content="\', escape=False)\nresponse.write(request.application)\nresponse.write(\'">\\n  <!-- Speaking of Google, don\\\'t forget to set your site up:\\n         http://google.com/webmasters -->\\n  <meta name="google-site-verification" content="">\\n  <!-- include stylesheets -->\\n  <!--link rel="stylesheet" href="\', escape=False)\nresponse.write(URL(\'static\',\'css/bootstrap.min.css\'))\nresponse.write(\'"/-->\\n  <link rel="stylesheet" href="https://stackpath.bootstrapcdn.com/bootstrap/4.1.0/css/bootstrap.min.css" integrity="sha384-9gVQ4dYFwwWSjIDZnLEWnxCjeSWFphJiwGPXr1jddIhOegiu1FwO5qRGvFXOdJZ4"\\n    crossorigin="anonymous">\\n\\n  <link rel="stylesheet" href="\', escape=False)\nresponse.write(URL(\'static\',\'css/web2py-bootstrap4.css\'))\nresponse.write(\'" />\\n  <link rel="shortcut icon" href="\', escape=False)\nresponse.write(URL(\'static\',\'images/favicon.jpg\'))\nresponse.write(\'" type="image/x-icon">\\n  <link rel="apple-touch-icon" href="\', escape=False)\nresponse.write(URL(\'static\',\'images/favicon.jpg\'))\nresponse.write(\'">\\n  <!-- All JavaScript at the bottom, except for Modernizr which enables\\n         HTML5 elements & feature detects -->\\n  <script src="\', escape=False)\nresponse.write(URL(\'static\',\'js/modernizr-2.8.3.min.js\'))\nresponse.write(\'"></script>\\n  <!-- Favicons -->\\n  \', escape=False)\nresponse.write(\'<script type="text/javascript"><!--\\n    // These variables are used by the web2py_ajax_init function in web2py_ajax.js (which is loaded below).\\n    \', escape=False)\nresponse.write(ASSIGNJS(\nw2p_ajax_confirm_message = T(\'Are you sure you want to delete this object?\'),\nw2p_ajax_disable_with_message = T(\'Working...\'),\nw2p_ajax_date_format = T(\'%Y-%m-%d\'),\nw2p_ajax_datetime_format = T(\'%Y-%m-%d %H:%M:%S\'),\najax_error_500 = T.M(\'An error occured, please [[reload %s]] the page\') % URL(args=request.args, vars=request.get_vars)\n))\nresponse.write(\'\\n    //--></script>\\n\', escape=False)\nresponse.files.insert(0,URL(\'static\',\'js/jquery.js\'))\nresponse.files.insert(1,URL(\'static\',\'css/calendar.css\'))\nresponse.files.insert(2,URL(\'static\',\'js/calendar.js\'))\nresponse.files.insert(3,URL(\'static\',\'js/web2py.js\'))\nresponse.include_meta()\nresponse.include_files()\nresponse.write(\'\\n\', escape=False)\nresponse.write(\'\\n  <!-- this includes jquery.js, calendar.js/.css and web2py.js -->\\n  \', escape=False)\nresponse.write(\'\\n</head>\\n\\n<body>\\n  <div class="w2p_flash alert alert-dismissable">\', escape=False)\nresponse.write(response.flash or \'\')\nresponse.write(\'</div>\\n  <div class="container">\\n    <div class="col-md-12">\\n      <img src="\', escape=False)\nresponse.write(URL(\'static\',\'images/logo1.png\'))\nresponse.write(\'" href="\', escape=False)\nresponse.write(URL(\'default\',\'index\'))\nresponse.write(\'" />\\n    </div>\\n    \', escape=False)\nif \'auth\' in globals():\n    response.write(\' \', escape=False)\n    if auth.user:\n        response.write(\'\\n    <nav>\\n    <ul class="nav nav-tabs" id="myTab" role="tablist">\\n\\n      <li class="nav-item">\\n        <a class="nav-link" href="\', escape=False)\n        response.write(URL(\'default\',\'index\'))\n        response.write(\'">In\\xc3\\xadcio</a>\\n      </li>\\n      <li class="nav-item">\\n        <a class="nav-link" href="\', escape=False)\n        response.write(URL(\'default\',\'busca_aluno\'))\n        response.write(\'">Presen\\xc3\\xa7a</a>\\n      </li>\\n      <li class="nav-item">\\n        <a class="nav-link" href="\', escape=False)\n        response.write(URL(\'default\',\'cadastro\'))\n        response.write(\'">Cadastro Kids</a>\\n      </li>\\n      \\n      <li class="nav-item">\\n        <a class="nav-link" href="\', escape=False)\n        response.write(URL(\'default\',\'equipe\'))\n        response.write(\'">Cadastro Equipe</a>\\n      </li>\\n  \\n      <li class="nav-item">\\n        <a class="nav-link" href="\', escape=False)\n        response.write(URL(\'default\',\'user/logout\'))\n        response.write(\'">Sair</a>\\n      </li>\\n    </ul>\\n  </nav>\\n  </div>\\n  \', escape=False)\n        pass\n    response.write(\' \', escape=False)\n    pass\nresponse.write(\'\\n\\n  </br>\\n  </script>\\n  <!-- Masthead ===================================== -->\\n  \', escape=False)\nresponse.write(\' \', escape=False)\nresponse.write(\'\\n  <!-- Main ========================================= -->\\n  <!-- Begin page content -->\\n  <div class="container-fluid main-container">\\n    <div class="col-md-12">\\n      \', escape=False)\nresponse.write(\' \', escape=False)\nresponse.write(\'\\n\\n<!DOCTYPE html>\\n<html>\\n\\n<body>\\n  <form>\\n    <div class="container">\\n      <div class="form-row">\\n        <div class="col-md-12">\\n          <!--h2 class="alert alert-info"> Buscar Kids</h2-->\\n          <div class="input-group col-md-12">\\n            <input id="nome_kids" type="text" required class="form-control input-lg" name="nome_kids" placeholder="Digite o nome da crian\\xc3\\xa7a"\\n              value="" />\\n            <div>\\n              <button class="btn btn-outline-primary" type="submit" name="lista_presenca" id="nome_kids">Buscar</button>\\n            </div>\\n            <a class="btn btn-outline-success" href="\', escape=False)\nresponse.write(URL(\'default\',\'cadastro\'))\nresponse.write(\'" role="button">Novo</a>\\n          </div>\\n        </div>\\n      </div>\\n    </div>\\n  </br>\\n    <div class="container">\\n      \', escape=False)\nif nao_encontrado:\n    response.write(\'\\n      <div class="alert alert-danger ">\\n        <button type="button" class="close" data-dismiss="alert">\\xc3\\x97</button>\', escape=False)\n    response.write(nao_encontrado)\n    response.write(\'</div>\\n      \', escape=False)\n    pass\nresponse.write(\'\\n    </div>\\n   <div> \\n  </form>\\n  <!--Busca  e inclus\\xc3\\xa3o de alunos na lista de presen\\xc3\\xa7a-->\\n\\n  \', escape=False)\nfor x in lista:\n    response.write(\'\\n  \', escape=False)\n    if x:\n        response.write(\'\\n  <form type="post">\\n    <div class="container">\\n      <div class="form-row">\\n        <div class="col-md-4 mb-3">\\n\\n          <label "c_nome">Nome</label>\\n          <input id="c_nome" type="text" class="form-control" name="c_nome" placeholder="Aluno" value="\', escape=False)\n        response.write(x.nome_crianca or \'Nome\')\n        response.write(\'"\\n            readonly="true">\\n        </div>\\n        <div class="col-md-4 mb-3">\\n          <label for="validationDefault02">Matricula</label>\\n          <input id="c_matricula" name="c_matricula" type="text" class="form-control" placeholder="n\\xc2\\xba da matr\\xc3\\xadcula" value="\', escape=False)\n        response.write(x.id)\n        response.write(\'"\\n            readonly="true">\\n        </div>\\n        <div class="col-md-4 mb-3">\\n          <label for="validationDefaultUsername">Email</label>\\n          <div class="input-group">\\n            <div class="input-group-prepend">\\n              <span class="input-group-text" id="inputGroupPrepend2">@</span>\\n            </div>\\n            <input id="c_email" name="c_email" type="text" class="form-control" placeholder="e-mail" aria-describedby="inputGroupPrepend2"\\n              value="\', escape=False)\n        response.write(x.email)\n        response.write(\'" readonly="true">\\n          </div>\\n        </div>\\n      </div>\\n      <div class="form-row">\\n        <div class="col-md-6 mb-3">\\n          <label for="validationDefault03">Respons\\xc3\\xa1vel</label>\\n          <input type="text" class="form-control" name="c_resp" id="c_resp" placeholder="respons\\xc3\\xa1vel" value="\', escape=False)\n        response.write(x.nome_resp)\n        response.write(\'" readonly="true">\\n        </div>\\n        <div class="col-md-3 mb-3">\\n          <label for="validationDefault04">Sala</label>\\n          <input type="text" class="form-control" id="c_sala" name="c_sala" placeholder="Sala" value="\', escape=False)\n        response.write(x.sala_matriculado.nome_sala)\n        response.write(\'"\\n            readonly="true">\\n        </div>\\n\\n        <div class="col-md-3 mb-3">\\n          <label for="validationDefault05">Cart\\xc3\\xa3o</label>\\n          <input type="text" class="form-control" id="c_cartao" name="c_cartao" placeholder="n\\xc2\\xba do Cart\\xc3\\xa3o" required>\\n        </div>\\n\\n      </div>\\n      <button class="btn btn-outline-primary" type="submit">Presente</button>\\n      <button class="btn btn-outline-warning" type="submit">Editar</button>\\n\\n    </div>\\n    \', escape=False)\n        pass\n    response.write(\'\\n    \', escape=False)\n    pass\nresponse.write(\'\\n    </div>\\n  </form>\\n</div>\\n\\n<div>\\n\\n\\n<!-- Button trigger modal -->\\n<button type="button" class="btn btn-primary" data-toggle="modal" data-target="#exampleModal">\\n    Launch demo modal\\n  </button>\\n  \\n  <!-- Modal -->\\n  <div class="modal fade" id="exampleModal" tabindex="-1" role="dialog" aria-labelledby="exampleModalLabel" aria-hidden="true">\\n    <div class="modal-dialog" role="document">\\n      <div class="modal-content">\\n        <div class="modal-header">\\n          <h5 class="modal-title" id="exampleModalLabel">Modal title</h5>\\n          <button type="button" class="close" data-dismiss="modal" aria-label="Close">\\n            <span aria-hidden="true">&times;</span>\\n          </button>\\n        </div>\\n        <div class="modal-body">\\n            <label "c_nome">Nome</label>\\n            <input id="c_nome" type="text" class="form-control" name="c_nome" placeholder="Aluno" value="\', escape=False)\nresponse.write(x.nome_crianca or \'Nome\')\nresponse.write(\'"\\n              readonly="true">\\n          </div>\\n          <div class="col-md-4 mb-3">\\n            <label for="validationDefault02">Matricula</label>\\n            <input id="c_matricula" name="c_matricula" type="text" class="form-control" placeholder="n\\xc2\\xba da matr\\xc3\\xadcula" value="\', escape=False)\nresponse.write(x.id)\nresponse.write(\'"\\n              readonly="true">\\n          </div>\\n          <div class="col-md-4 mb-3">\\n            <label for="validationDefaultUsername">Email</label>\\n            <div class="input-group">\\n              <div class="input-group-prepend">\\n                <span class="input-group-text" id="inputGroupPrepend2">@</span>\\n              </div>\\n              <input id="c_email" name="c_email" type="text" class="form-control" placeholder="e-mail" aria-describedby="inputGroupPrepend2"\\n                value="\', escape=False)\nresponse.write(x.email)\nresponse.write(\'" readonly="true">\\n            </div>\\n          </div>\\n        </div>\\n        <div class="form-row">\\n          <div class="col-md-6 mb-3">\\n            <label for="validationDefault03">Respons\\xc3\\xa1vel</label>\\n            <input type="text" class="form-control" name="c_resp" id="c_resp" placeholder="respons\\xc3\\xa1vel" value="\', escape=False)\nresponse.write(x.nome_resp)\nresponse.write(\'" readonly="true">\\n          </div>\\n          <div class="col-md-3 mb-3">\\n            <label for="validationDefault04">Sala</label>\\n            <input type="text" class="form-control" id="c_sala" name="c_sala" placeholder="Sala" value="\', escape=False)\nresponse.write(x.sala_matriculado.nome_sala)\nresponse.write(\'"\\n              readonly="true">\\n          </div>\\n  \\n          <div class="col-md-3 mb-3">\\n            <label for="validationDefault05">Cart\\xc3\\xa3o</label>\\n            <input type="text" class="form-control" id="c_cartao" name="c_cartao" placeholder="n\\xc2\\xba do Cart\\xc3\\xa3o" required>\\n          </div>\\n        </div>\\n        <div class="modal-footer">\\n          <button type="button" class="btn btn-secondary" data-dismiss="modal">Close</button>\\n          <button type="button" class="btn btn-primary">Save changes</button>\\n        </div>\\n      </div>\\n    </div>\\n  </div>\\n\\n\\n\\n</div>\\n\\n\\n\\n\\n  <!--Lista de Presen\\xc3\\xa7a -->\\n  </br>\\n  </br>\\n\\n  <div class="container">\\n    <div class="form-row">\\n      <div class="col-md-12">\\n        <h5 class="p-3 mb-2 bg-info text-white">Registros em \', escape=False)\nresponse.write(data_registro)\nresponse.write(\'</h5>\\n        <table class="table table-hover">\\n          <thead>\\n            <tr>\\n              <th scope="col">Matricula</th>\\n              <th scope="col">Nome</th>\\n              <th scope="col">Sala</th>\\n              <th scope="col">Cart\\xc3\\xa3o</th>\\n              <th scope="col">Data entrada</th>\\n              <th scope="col">A\\xc3\\xa7\\xc3\\xa3o</th>\\n            </tr>\\n          </thead>\\n          <tbody>\\n            \', escape=False)\nfor j in m:\n    response.write(\'\\n            <tr>\\n              <th id="conteudo" scope="row">\', escape=False)\n    response.write(j.id)\n    response.write(\'</th>\\n              <td>\', escape=False)\n    response.write(j.nome)\n    response.write(\'</td>\\n              <td>\', escape=False)\n    response.write(j.matricula_sala)\n    response.write(\'</td>\\n              <td>\', escape=False)\n    response.write(j.cartao)\n    response.write(\'</td>\\n              <td>\', escape=False)\n    response.write(j.data_entrada)\n    response.write(\'</td>\\n              <td>\\n                <button class="btn btn-outline-warning" type="submit" id="edita_kids">Editar</button>\\n              </td>\\n            </tr>\\n            \', escape=False)\n    pass\nresponse.write(\'\\n          </tbody>\\n        </table>\\n      </div>\\n    </div>\\n  </div>\\n</body>\\n\\n</html>\', escape=False)\nresponse.write(\' \', escape=False)\nresponse.write(\' \', escape=False)\nresponse.write(response.toolbar() if configuration.get(\'app.toolbar\') else \'\')\nresponse.write(\'\\n    </div>\\n  </div>\\n\\n  \', escape=False)\nresponse.write(\'\\n  <!-- this is default footer -->\\n  <footer class="footer">\\n    <div class="container-fluid">\\n      <div class="copyright pull-left">\', escape=False)\nresponse.write(T(\'Copyright\'))\nresponse.write(\' &#169; \', escape=False)\nresponse.write(request.now.year)\nresponse.write(\'</div>\\n      <div id="poweredBy" class="pull-right">\\n        \', escape=False)\nresponse.write(T(\'Powered by\'))\nresponse.write(\'\\n        <a href="http://www.imanancial.com/">Manancial de Vida</a>\\n      </div>\\n    </div>\\n  </footer>\\n  \', escape=False)\nresponse.write(\'\\n  <!-- The javascript =============================== -->\\n  <script src="\', escape=False)\nresponse.write(URL(\'static\',\'js/bootstrap.min.js\'))\nresponse.write(\'"></script>\\n  <script src="\', escape=False)\nresponse.write(URL(\'static\',\'js/web2py-bootstrap4.js\'))\nresponse.write(\'"></script> \', escape=False)\nresponse.write(\' \', escape=False)\nif response.google_analytics_id:\n    response.write(\'\\n  <!-- Analytics ==================================== -->\\n  <script src="\', escape=False)\n    response.write(URL(\'static\',\'js/analytics.min.js\'))\n    response.write(\'"></script>\\n  <script type="text/javascript">\\n    analytics.initialize({\\n      \\\'Google Analytics\\\': { trackingId: \\\'\', escape=False)\n    response.write(response.google_analytics_id)\n    response.write("\' }\\n    });\\n  </script> ", escape=False)\n    pass\nresponse.write(\'\\n  <!-- Share ============================y============ -->\\n  <script src="\', escape=False)\nresponse.write(URL(\'static\',\'js/share.js\',vars=dict(static=URL(\'static\',\'images\'))))\nresponse.write(\'"></script>\\n\\n</body>\\n\\n</html>\', escape=False)'
p7
sS'snapshot'
p8
(dp9
S'exception'
p10
(dp11
S'__getslice__'
p12
S"<method-wrapper '__getslice__' of exceptions.NameError object>"
p13
sS'__str__'
p14
S"<method-wrapper '__str__' of exceptions.NameError object>"
p15
sS'__reduce__'
p16
S'<built-in method __reduce__ of exceptions.NameError object>'
p17
sS'__dict__'
p18
S'{}'
p19
sS'message'
p20
S'"name \'x\' is not defined"'
p21
sS'__sizeof__'
p22
S'<built-in method __sizeof__ of exceptions.NameError object>'
p23
sS'__init__'
p24
S"<method-wrapper '__init__' of exceptions.NameError object>"
p25
sS'__setattr__'
p26
S"<method-wrapper '__setattr__' of exceptions.NameError object>"
p27
sS'__reduce_ex__'
p28
S'<built-in method __reduce_ex__ of exceptions.NameError object>'
p29
sS'__new__'
p30
S'<built-in method __new__ of type object>'
p31
sS'__format__'
p32
S'<built-in method __format__ of exceptions.NameError object>'
p33
sS'__class__'
p34
S"<type 'exceptions.NameError'>"
p35
sS'__doc__'
p36
S"'Name not found globally.'"
p37
sS'__getitem__'
p38
S"<method-wrapper '__getitem__' of exceptions.NameError object>"
p39
sS'__setstate__'
p40
S'<built-in method __setstate__ of exceptions.NameError object>'
p41
sS'__getattribute__'
p42
S"<method-wrapper '__getattribute__' of exceptions.NameError object>"
p43
sS'args'
p44
S'("name \'x\' is not defined",)'
p45
sS'__subclasshook__'
p46
S'<built-in method __subclasshook__ of type object>'
p47
sS'__unicode__'
p48
S'<built-in method __unicode__ of exceptions.NameError object>'
p49
sS'__delattr__'
p50
S"<method-wrapper '__delattr__' of exceptions.NameError object>"
p51
sS'__repr__'
p52
S"<method-wrapper '__repr__' of exceptions.NameError object>"
p53
sS'__hash__'
p54
S"<method-wrapper '__hash__' of exceptions.NameError object>"
p55
ssS'evalue'
p56
S"name 'x' is not defined"
p57
sS'request'
p58
cgluon.html
XML_unpickle
p59
(S's|W\x00\x00<div><table><tr><td style="font-weight:bold;vertical-align:top;">ajax</td><td style="vertical-align:top;">:</td><td><div>False</div></td></tr><tr><td style="font-weight:bold;vertical-align:top;">application</td><td style="vertical-align:top;">:</td><td><div>KidsAppManager</div></td></tr><tr><td style="font-weight:bold;vertical-align:top;">args</td><td style="vertical-align:top;">:</td><td><div><table></table></div></td></tr><tr><td style="font-weight:bold;vertical-align:top;">cid</td><td style="vertical-align:top;">:</td><td><div>None</div></td></tr><tr><td style="font-weight:bold;vertical-align:top;">client</td><td style="vertical-align:top;">:</td><td><div>127.0.0.1</div></td></tr><tr><td style="font-weight:bold;vertical-align:top;">controller</td><td style="vertical-align:top;">:</td><td><div>default</div></td></tr><tr><td style="font-weight:bold;vertical-align:top;">cookies</td><td style="vertical-align:top;">:</td><td><div><table><tr><td style="font-weight:bold;vertical-align:top;">session_id_admin</td><td style="vertical-align:top;">:</td><td><div>127.0.0.1-e9c7a7e3-f5ce-4faa-bd19-ff4fb7267a04<table><tr><td style="font-weight:bold;vertical-align:top;">comment</td><td style="vertical-align:top;">:</td><td><div></div></td></tr><tr><td style="font-weight:bold;vertical-align:top;">domain</td><td style="vertical-align:top;">:</td><td><div></div></td></tr><tr><td style="font-weight:bold;vertical-align:top;">expires</td><td style="vertical-align:top;">:</td><td><div></div></td></tr><tr><td style="font-weight:bold;vertical-align:top;">httponly</td><td style="vertical-align:top;">:</td><td><div></div></td></tr><tr><td style="font-weight:bold;vertical-align:top;">max-age</td><td style="vertical-align:top;">:</td><td><div></div></td></tr><tr><td style="font-weight:bold;vertical-align:top;">path</td><td style="vertical-align:top;">:</td><td><div></div></td></tr><tr><td style="font-weight:bold;vertical-align:top;">secure</td><td style="vertical-align:top;">:</td><td><div></div></td></tr><tr><td style="font-weight:bold;vertical-align:top;">version</td><td style="vertical-align:top;">:</td><td><div></div></td></tr></table></div></td></tr><tr><td style="font-weight:bold;vertical-align:top;">session_id_kidsappmanager</td><td style="vertical-align:top;">:</td><td><div>127.0.0.1-ffff1d17-4eaf-4fb5-81db-e9469cc8704e<table><tr><td style="font-weight:bold;vertical-align:top;">comment</td><td style="vertical-align:top;">:</td><td><div></div></td></tr><tr><td style="font-weight:bold;vertical-align:top;">domain</td><td style="vertical-align:top;">:</td><td><div></div></td></tr><tr><td style="font-weight:bold;vertical-align:top;">expires</td><td style="vertical-align:top;">:</td><td><div></div></td></tr><tr><td style="font-weight:bold;vertical-align:top;">httponly</td><td style="vertical-align:top;">:</td><td><div></div></td></tr><tr><td style="font-weight:bold;vertical-align:top;">max-age</td><td style="vertical-align:top;">:</td><td><div></div></td></tr><tr><td style="font-weight:bold;vertical-align:top;">path</td><td style="vertical-align:top;">:</td><td><div></div></td></tr><tr><td style="font-weight:bold;vertical-align:top;">secure</td><td style="vertical-align:top;">:</td><td><div></div></td></tr><tr><td style="font-weight:bold;vertical-align:top;">version</td><td style="vertical-align:top;">:</td><td><div></div></td></tr></table></div></td></tr></table></div></td></tr><tr><td style="font-weight:bold;vertical-align:top;">env</td><td style="vertical-align:top;">:</td><td><div><table><tr><td style="font-weight:bold;vertical-align:top;">HTTP_ACCEPT</td><td style="vertical-align:top;">:</td><td><div>text/html,application/xhtml+xml,application/xml;q=0.9,image/webp,image/apng,*/*;q=0.8</div></td></tr><tr><td style="font-weight:bold;vertical-align:top;">HTTP_ACCEPT_ENCODING</td><td style="vertical-align:top;">:</td><td><div>gzip, deflate, br</div></td></tr><tr><td style="font-weight:bold;vertical-align:top;">HTTP_ACCEPT_LANGUAGE</td><td style="vertical-align:top;">:</td><td><div>pt-BR,pt;q=0.9,en-US;q=0.8,en;q=0.7</div></td></tr><tr><td style="font-weight:bold;vertical-align:top;">HTTP_CONNECTION</td><td style="vertical-align:top;">:</td><td><div>keep-alive</div></td></tr><tr><td style="font-weight:bold;vertical-align:top;">HTTP_COOKIE</td><td style="vertical-align:top;">:</td><td><div>session_id_admin=127.0.0.1-e9c7a7e3-f5ce-4faa-bd19-ff4fb7267a04; session_id_kidsappmanager=127.0.0.1-ffff1d17-4eaf-4fb5-81db-e9469cc8704e</div></td></tr><tr><td style="font-weight:bold;vertical-align:top;">HTTP_HOST</td><td style="vertical-align:top;">:</td><td><div>127.0.0.1:8000</div></td></tr><tr><td style="font-weight:bold;vertical-align:top;">HTTP_REFERER</td><td style="vertical-align:top;">:</td><td><div>http://127.0.0.1:8000/KidsAppManager/default/index</div></td></tr><tr><td style="font-weight:bold;vertical-align:top;">HTTP_UPGRADE_INSECURE_REQUESTS</td><td style="vertical-align:top;">:</td><td><div>1</div></td></tr><tr><td style="font-weight:bold;vertical-align:top;">HTTP_USER_AGENT</td><td style="vertical-align:top;">:</td><td><div>Mozilla/5.0 (X11; Linux x86_64) AppleWebKit/537.36 (KHTML, like Gecko) Chrome/67.0.3396.87 Safari/537.36</div></td></tr><tr><td style="font-weight:bold;vertical-align:top;">PATH_INFO</td><td style="vertical-align:top;">:</td><td><div>/KidsAppManager/default/busca_aluno</div></td></tr><tr><td style="font-weight:bold;vertical-align:top;">QUERY_STRING</td><td style="vertical-align:top;">:</td><td><div></div></td></tr><tr><td style="font-weight:bold;vertical-align:top;">REMOTE_ADDR</td><td style="vertical-align:top;">:</td><td><div>127.0.0.1</div></td></tr><tr><td style="font-weight:bold;vertical-align:top;">REMOTE_PORT</td><td style="vertical-align:top;">:</td><td><div>59854</div></td></tr><tr><td style="font-weight:bold;vertical-align:top;">REQUEST_METHOD</td><td style="vertical-align:top;">:</td><td><div>GET</div></td></tr><tr><td style="font-weight:bold;vertical-align:top;">SCRIPT_NAME</td><td style="vertical-align:top;">:</td><td><div></div></td></tr><tr><td style="font-weight:bold;vertical-align:top;">SERVER_NAME</td><td style="vertical-align:top;">:</td><td><div>Unknow</div></td></tr><tr><td style="font-weight:bold;vertical-align:top;">SERVER_PORT</td><td style="vertical-align:top;">:</td><td><div>8000</div></td></tr><tr><td style="font-weight:bold;vertical-align:top;">SERVER_PROTOCOL</td><td style="vertical-align:top;">:</td><td><div>HTTP/1.1</div></td></tr><tr><td style="font-weight:bold;vertical-align:top;">SERVER_SOFTWARE</td><td style="vertical-align:top;">:</td><td><div>Rocket 1.2.6</div></td></tr><tr><td style="font-weight:bold;vertical-align:top;">app_folders</td><td style="vertical-align:top;">:</td><td><div>set([&#x27;/home/leonardo/Downloads/web2py/applications/KidsAppManager/&#x27;, &#x27;/home/leonardo/Downloads/web2py/applications/admin/&#x27;])</div></td></tr><tr><td style="font-weight:bold;vertical-align:top;">applications_parent</td><td style="vertical-align:top;">:</td><td><div>/home/leonardo/Downloads/web2py</div></td></tr><tr><td style="font-weight:bold;vertical-align:top;">cmd_args</td><td style="vertical-align:top;">:</td><td><div><table></table></div></td></tr><tr><td style="font-weight:bold;vertical-align:top;">cmd_options</td><td style="vertical-align:top;">:</td><td><div>&lt;Values at 0x7fc955b86f38: {&#x27;verbose&#x27;: False, &#x27;ip&#x27;: &#x27;127.0.0.1&#x27;, &#x27;debuglevel&#x27;: 30, &#x27;with_scheduler&#x27;: False, &#x27;shutdown_timeout&#x27;: 5, &#x27;taskbar&#x27;: False, &#x27;with_coverage&#x27;: False, &#x27;pid_filename&#x27;: &#x27;httpserver.pid&#x27;, &#x27;maxthreads&#x27;: None, &#x27;softcron&#x27;: False, &#x27;server_name&#x27;: &#x27;Unknow&#x27;, &#x27;bpython&#x27;: False, &#x27;nogui&#x27;: False, &#x27;port&#x27;: 8000, &#x27;print_errors&#x27;: False, &#x27;extcron&#x27;: False, &#x27;runcron&#x27;: False, &#x27;run_system_tests&#x27;: False, &#x27;test&#x27;: None, &#x27;folder&#x27;: &#x27;/home/leonardo/Downloads/web2py&#x27;, &#x27;config&#x27;: &#x27;&#x27;, &#x27;minthreads&#x27;: None, &#x27;shell&#x27;: None, &#x27;run&#x27;: &#x27;&#x27;, &#x27;log_filename&#x27;: &#x27;httpserver.log&#x27;, &#x27;profiler_dir&#x27;: None, &#x27;args&#x27;: [&#x27;&#x27;], &#x27;socket_timeout&#x27;: 5, &#x27;ssl_ca_certificate&#x27;: None, &#x27;scheduler&#x27;: None, &#x27;interfaces&#x27;: None, &#x27;ssl_private_key&#x27;: &#x27;&#x27;, &#x27;gae&#x27;: None, &#x27;password&#x27;: &#x27;******&#x27;, &#x27;request_queue_size&#x27;: 5, &#x27;ssl_certificate&#x27;: &#x27;&#x27;, &#x27;cronjob&#x27;: False, &#x27;numthreads&#x27;: None, &#x27;quiet&#x27;: False, &#x27;import_models&#x27;: False, &#x27;timeout&#x27;: 10, &#x27;plain&#x27;: False, &#x27;nobanner&#x27;: False}&gt;</div></td></tr><tr><td style="font-weight:bold;vertical-align:top;">db_sessions</td><td style="vertical-align:top;">:</td><td><div>set([])</div></td></tr><tr><td style="font-weight:bold;vertical-align:top;">debugging</td><td style="vertical-align:top;">:</td><td><div>False</div></td></tr><tr><td style="font-weight:bold;vertical-align:top;">gluon_parent</td><td style="vertical-align:top;">:</td><td><div>/home/leonardo/Downloads/web2py</div></td></tr><tr><td style="font-weight:bold;vertical-align:top;">http_accept</td><td style="vertical-align:top;">:</td><td><div>text/html,application/xhtml+xml,application/xml;q=0.9,image/webp,image/apng,*/*;q=0.8</div></td></tr><tr><td style="font-weight:bold;vertical-align:top;">http_accept_encoding</td><td style="vertical-align:top;">:</td><td><div>gzip, deflate, br</div></td></tr><tr><td style="font-weight:bold;vertical-align:top;">http_accept_language</td><td style="vertical-align:top;">:</td><td><div>pt-BR,pt;q=0.9,en-US;q=0.8,en;q=0.7</div></td></tr><tr><td style="font-weight:bold;vertical-align:top;">http_connection</td><td style="vertical-align:top;">:</td><td><div>keep-alive</div></td></tr><tr><td style="font-weight:bold;vertical-align:top;">http_cookie</td><td style="vertical-align:top;">:</td><td><div>session_id_admin=127.0.0.1-e9c7a7e3-f5ce-4faa-bd19-ff4fb7267a04; session_id_kidsappmanager=127.0.0.1-ffff1d17-4eaf-4fb5-81db-e9469cc8704e</div></td></tr><tr><td style="font-weight:bold;vertical-align:top;">http_host</td><td style="vertical-align:top;">:</td><td><div>127.0.0.1:8000</div></td></tr><tr><td style="font-weight:bold;vertical-align:top;">http_referer</td><td style="vertical-align:top;">:</td><td><div>http://127.0.0.1:8000/KidsAppManager/default/index</div></td></tr><tr><td style="font-weight:bold;vertical-align:top;">http_upgrade_insecure_requests</td><td style="vertical-align:top;">:</td><td><div>1</div></td></tr><tr><td style="font-weight:bold;vertical-align:top;">http_user_agent</td><td style="vertical-align:top;">:</td><td><div>Mozilla/5.0 (X11; Linux x86_64) AppleWebKit/537.36 (KHTML, like Gecko) Chrome/67.0.3396.87 Safari/537.36</div></td></tr><tr><td style="font-weight:bold;vertical-align:top;">is_jython</td><td style="vertical-align:top;">:</td><td><div>False</div></td></tr><tr><td style="font-weight:bold;vertical-align:top;">is_py2</td><td style="vertical-align:top;">:</td><td><div>True</div></td></tr><tr><td style="font-weight:bold;vertical-align:top;">is_pypy</td><td style="vertical-align:top;">:</td><td><div>False</div></td></tr><tr><td style="font-weight:bold;vertical-align:top;">is_source</td><td style="vertical-align:top;">:</td><td><div>True</div></td></tr><tr><td style="font-weight:bold;vertical-align:top;">local_hosts</td><td style="vertical-align:top;">:</td><td><div><table><tr><td><div>127.0.1.1</div></td></tr><tr><td><div>::1</div></td></tr><tr><td><div>Unknow</div></td></tr><tr><td><div>::ffff:127.0.0.1</div></td></tr><tr><td><div>127.0.0.1</div></td></tr></table></div></td></tr><tr><td style="font-weight:bold;vertical-align:top;">path_info</td><td style="vertical-align:top;">:</td><td><div>/KidsAppManager/default/busca_aluno</div></td></tr><tr><td style="font-weight:bold;vertical-align:top;">query_string</td><td style="vertical-align:top;">:</td><td><div></div></td></tr><tr><td style="font-weight:bold;vertical-align:top;">remote_addr</td><td style="vertical-align:top;">:</td><td><div>127.0.0.1</div></td></tr><tr><td style="font-weight:bold;vertical-align:top;">remote_port</td><td style="vertical-align:top;">:</td><td><div>59854</div></td></tr><tr><td style="font-weight:bold;vertical-align:top;">request_method</td><td style="vertical-align:top;">:</td><td><div>GET</div></td></tr><tr><td style="font-weight:bold;vertical-align:top;">request_uri</td><td style="vertical-align:top;">:</td><td><div>/KidsAppManager/default/busca_aluno</div></td></tr><tr><td style="font-weight:bold;vertical-align:top;">script_name</td><td style="vertical-align:top;">:</td><td><div></div></td></tr><tr><td style="font-weight:bold;vertical-align:top;">server_name</td><td style="vertical-align:top;">:</td><td><div>Unknow</div></td></tr><tr><td style="font-weight:bold;vertical-align:top;">server_port</td><td style="vertical-align:top;">:</td><td><div>8000</div></td></tr><tr><td style="font-weight:bold;vertical-align:top;">server_protocol</td><td style="vertical-align:top;">:</td><td><div>HTTP/1.1</div></td></tr><tr><td style="font-weight:bold;vertical-align:top;">server_software</td><td style="vertical-align:top;">:</td><td><div>Rocket 1.2.6</div></td></tr><tr><td style="font-weight:bold;vertical-align:top;">web2py_path</td><td style="vertical-align:top;">:</td><td><div>/home/leonardo/Downloads/web2py</div></td></tr><tr><td style="font-weight:bold;vertical-align:top;">web2py_version</td><td style="vertical-align:top;">:</td><td><div>2.16.1-stable+timestamp.2017.11.14.05.54.25</div></td></tr><tr><td style="font-weight:bold;vertical-align:top;">wsgi.errors</td><td style="vertical-align:top;">:</td><td><div>&lt;open file &#x27;&lt;stderr&gt;&#x27;, mode &#x27;w&#x27; at 0x7fc95a6971e0&gt;</div></td></tr><tr><td style="font-weight:bold;vertical-align:top;">wsgi.file_wrapper</td><td style="vertical-align:top;">:</td><td><div>&lt;class wsgiref.util.FileWrapper at 0x7fc955c1ec80&gt;</div></td></tr><tr><td style="font-weight:bold;vertical-align:top;">wsgi.input</td><td style="vertical-align:top;">:</td><td><div>&lt;socket._fileobject object at 0x7fc9442b00d0&gt;</div></td></tr><tr><td style="font-weight:bold;vertical-align:top;">wsgi.multiprocess</td><td style="vertical-align:top;">:</td><td><div>False</div></td></tr><tr><td style="font-weight:bold;vertical-align:top;">wsgi.multithread</td><td style="vertical-align:top;">:</td><td><div>True</div></td></tr><tr><td style="font-weight:bold;vertical-align:top;">wsgi.run_once</td><td style="vertical-align:top;">:</td><td><div>False</div></td></tr><tr><td style="font-weight:bold;vertical-align:top;">wsgi.url_scheme</td><td style="vertical-align:top;">:</td><td><div>http</div></td></tr><tr><td style="font-weight:bold;vertical-align:top;">wsgi.version</td><td style="vertical-align:top;">:</td><td><div><table><tr><td><div>1</div></td></tr><tr><td><div>0</div></td></tr></table></div></td></tr><tr><td style="font-weight:bold;vertical-align:top;">wsgi_errors</td><td style="vertical-align:top;">:</td><td><div>&lt;open file &#x27;&lt;stderr&gt;&#x27;, mode &#x27;w&#x27; at 0x7fc95a6971e0&gt;</div></td></tr><tr><td style="font-weight:bold;vertical-align:top;">wsgi_file_wrapper</td><td style="vertical-align:top;">:</td><td><div>&lt;class wsgiref.util.FileWrapper at 0x7fc955c1ec80&gt;</div></td></tr><tr><td style="font-weight:bold;vertical-align:top;">wsgi_input</td><td style="vertical-align:top;">:</td><td><div>&lt;socket._fileobject object at 0x7fc9442b00d0&gt;</div></td></tr><tr><td style="font-weight:bold;vertical-align:top;">wsgi_multiprocess</td><td style="vertical-align:top;">:</td><td><div>False</div></td></tr><tr><td style="font-weight:bold;vertical-align:top;">wsgi_multithread</td><td style="vertical-align:top;">:</td><td><div>True</div></td></tr><tr><td style="font-weight:bold;vertical-align:top;">wsgi_run_once</td><td style="vertical-align:top;">:</td><td><div>False</div></td></tr><tr><td style="font-weight:bold;vertical-align:top;">wsgi_url_scheme</td><td style="vertical-align:top;">:</td><td><div>http</div></td></tr><tr><td style="font-weight:bold;vertical-align:top;">wsgi_version</td><td style="vertical-align:top;">:</td><td><div><table><tr><td><div>1</div></td></tr><tr><td><div>0</div></td></tr></table></div></td></tr></table></div></td></tr><tr><td style="font-weight:bold;vertical-align:top;">extension</td><td style="vertical-align:top;">:</td><td><div>html</div></td></tr><tr><td style="font-weight:bold;vertical-align:top;">folder</td><td style="vertical-align:top;">:</td><td><div>/home/leonardo/Downloads/web2py/applications/KidsAppManager/</div></td></tr><tr><td style="font-weight:bold;vertical-align:top;">function</td><td style="vertical-align:top;">:</td><td><div>busca_aluno</div></td></tr><tr><td style="font-weight:bold;vertical-align:top;">global_settings</td><td style="vertical-align:top;">:</td><td><div><table><tr><td style="font-weight:bold;vertical-align:top;">app_folders</td><td style="vertical-align:top;">:</td><td><div>set([&#x27;/home/leonardo/Downloads/web2py/applications/KidsAppManager/&#x27;, &#x27;/home/leonardo/Downloads/web2py/applications/admin/&#x27;])</div></td></tr><tr><td style="font-weight:bold;vertical-align:top;">applications_parent</td><td style="vertical-align:top;">:</td><td><div>/home/leonardo/Downloads/web2py</div></td></tr><tr><td style="font-weight:bold;vertical-align:top;">cmd_args</td><td style="vertical-align:top;">:</td><td><div><table></table></div></td></tr><tr><td style="font-weight:bold;vertical-align:top;">cmd_options</td><td style="vertical-align:top;">:</td><td><div>&lt;Values at 0x7fc955b86f38: {&#x27;verbose&#x27;: False, &#x27;ip&#x27;: &#x27;127.0.0.1&#x27;, &#x27;debuglevel&#x27;: 30, &#x27;with_scheduler&#x27;: False, &#x27;shutdown_timeout&#x27;: 5, &#x27;taskbar&#x27;: False, &#x27;with_coverage&#x27;: False, &#x27;pid_filename&#x27;: &#x27;httpserver.pid&#x27;, &#x27;maxthreads&#x27;: None, &#x27;softcron&#x27;: False, &#x27;server_name&#x27;: &#x27;Unknow&#x27;, &#x27;bpython&#x27;: False, &#x27;nogui&#x27;: False, &#x27;port&#x27;: 8000, &#x27;print_errors&#x27;: False, &#x27;extcron&#x27;: False, &#x27;runcron&#x27;: False, &#x27;run_system_tests&#x27;: False, &#x27;test&#x27;: None, &#x27;folder&#x27;: &#x27;/home/leonardo/Downloads/web2py&#x27;, &#x27;config&#x27;: &#x27;&#x27;, &#x27;minthreads&#x27;: None, &#x27;shell&#x27;: None, &#x27;run&#x27;: &#x27;&#x27;, &#x27;log_filename&#x27;: &#x27;httpserver.log&#x27;, &#x27;profiler_dir&#x27;: None, &#x27;args&#x27;: [&#x27;&#x27;], &#x27;socket_timeout&#x27;: 5, &#x27;ssl_ca_certificate&#x27;: None, &#x27;scheduler&#x27;: None, &#x27;interfaces&#x27;: None, &#x27;ssl_private_key&#x27;: &#x27;&#x27;, &#x27;gae&#x27;: None, &#x27;password&#x27;: &#x27;******&#x27;, &#x27;request_queue_size&#x27;: 5, &#x27;ssl_certificate&#x27;: &#x27;&#x27;, &#x27;cronjob&#x27;: False, &#x27;numthreads&#x27;: None, &#x27;quiet&#x27;: False, &#x27;import_models&#x27;: False, &#x27;timeout&#x27;: 10, &#x27;plain&#x27;: False, &#x27;nobanner&#x27;: False}&gt;</div></td></tr><tr><td style="font-weight:bold;vertical-align:top;">db_sessions</td><td style="vertical-align:top;">:</td><td><div>set([])</div></td></tr><tr><td style="font-weight:bold;vertical-align:top;">debugging</td><td style="vertical-align:top;">:</td><td><div>False</div></td></tr><tr><td style="font-weight:bold;vertical-align:top;">gluon_parent</td><td style="vertical-align:top;">:</td><td><div>/home/leonardo/Downloads/web2py</div></td></tr><tr><td style="font-weight:bold;vertical-align:top;">is_jython</td><td style="vertical-align:top;">:</td><td><div>False</div></td></tr><tr><td style="font-weight:bold;vertical-align:top;">is_py2</td><td style="vertical-align:top;">:</td><td><div>True</div></td></tr><tr><td style="font-weight:bold;vertical-align:top;">is_pypy</td><td style="vertical-align:top;">:</td><td><div>False</div></td></tr><tr><td style="font-weight:bold;vertical-align:top;">is_source</td><td style="vertical-align:top;">:</td><td><div>True</div></td></tr><tr><td style="font-weight:bold;vertical-align:top;">local_hosts</td><td style="vertical-align:top;">:</td><td><div><table><tr><td><div>127.0.1.1</div></td></tr><tr><td><div>::1</div></td></tr><tr><td><div>Unknow</div></td></tr><tr><td><div>::ffff:127.0.0.1</div></td></tr><tr><td><div>127.0.0.1</div></td></tr></table></div></td></tr><tr><td style="font-weight:bold;vertical-align:top;">web2py_version</td><td style="vertical-align:top;">:</td><td><div>2.16.1-stable+timestamp.2017.11.14.05.54.25</div></td></tr></table></div></td></tr><tr><td style="font-weight:bold;vertical-align:top;">is_https</td><td style="vertical-align:top;">:</td><td><div>False</div></td></tr><tr><td style="font-weight:bold;vertical-align:top;">is_local</td><td style="vertical-align:top;">:</td><td><div>True</div></td></tr><tr><td style="font-weight:bold;vertical-align:top;">is_restful</td><td style="vertical-align:top;">:</td><td><div>False</div></td></tr><tr><td style="font-weight:bold;vertical-align:top;">is_scheduler</td><td style="vertical-align:top;">:</td><td><div>False</div></td></tr><tr><td style="font-weight:bold;vertical-align:top;">is_shell</td><td style="vertical-align:top;">:</td><td><div>False</div></td></tr><tr><td style="font-weight:bold;vertical-align:top;">now</td><td style="vertical-align:top;">:</td><td><div>datetime.datetime(2018, 6, 28, 16, 51, 30, 435017)</div></td></tr><tr><td style="font-weight:bold;vertical-align:top;">raw_args</td><td style="vertical-align:top;">:</td><td><div></div></td></tr><tr><td style="font-weight:bold;vertical-align:top;">raw_extension</td><td style="vertical-align:top;">:</td><td><div>None</div></td></tr><tr><td style="font-weight:bold;vertical-align:top;">url</td><td style="vertical-align:top;">:</td><td><div>/KidsAppManager/default/busca_aluno</div></td></tr><tr><td style="font-weight:bold;vertical-align:top;">utcnow</td><td style="vertical-align:top;">:</td><td><div>datetime.datetime(2018, 6, 28, 19, 51, 30, 435038)</div></td></tr><tr><td style="font-weight:bold;vertical-align:top;">wsgi</td><td style="vertical-align:top;">:</td><td><div>&lt;gluon.main.LazyWSGI object at 0x7fc944083990&gt;</div></td></tr></table></div>'
tRp60
sS'frames'
p61
(lp62
(dp63
S'file'
p64
S'/home/leonardo/Downloads/web2py/gluon/restricted.py'
p65
sS'dump'
p66
(dp67
S'environment'
p68
S"{'A': <class 'gluon.html.A'>, 'ANY_OF': <class 'gluon.validators.ANY_OF'>, 'ASSIGNJS': <function ASSIGNJS>, 'AppConfig': <function AppConfig>, 'Auth': <class 'gluon.tools.Auth'>, 'B': <class 'gluon.html.B'>, 'BEAUTIFY': <class 'gluon.html.BEAUTIFY'>, 'BODY': <class 'gluon.html.BODY'>, 'BR': <class 'gluon.html.BR'>, 'BUTTON': <class 'gluon.html.BUTTON'>, ...}"
p69
sS'ccode'
p70
S'<code object <module> at 0x7fc9444881b0, file "/...pManager/views/default/busca_aluno.html", line 1>'
p71
ssS'lnum'
p72
I219
sS'lines'
p73
(dp74
I214
S'    if environment is None:'
p75
sI215
S'        environment = {}'
p76
sI216
S"    environment['__file__'] = layer"
p77
sI217
S"    environment['__name__'] = '__restricted__'"
p78
sI218
S'    try:'
p79
sI219
S'        exec(ccode, environment)'
p80
sI220
S'    except HTTP:'
p81
sI221
S'        raise'
p82
sI222
S'    except RestrictedError:'
p83
sI223
S'        # do not encapsulate (obfuscate) the original RestrictedError'
p84
ssS'call'
p85
S'(ccode=<code object <module> at 0x7fc9444881b0, file "/...pManager/views/default/busca_aluno.html", line 1>, environment={\'A\': <class \'gluon.html.A\'>, \'ANY_OF\': <class \'gluon.validators.ANY_OF\'>, \'ASSIGNJS\': <function ASSIGNJS>, \'AppConfig\': <function AppConfig>, \'Auth\': <class \'gluon.tools.Auth\'>, \'B\': <class \'gluon.html.B\'>, \'BEAUTIFY\': <class \'gluon.html.BEAUTIFY\'>, \'BODY\': <class \'gluon.html.BODY\'>, \'BR\': <class \'gluon.html.BR\'>, \'BUTTON\': <class \'gluon.html.BUTTON\'>, ...}, layer=\'/home/leonardo/Downloads/web2py/applications/KidsAppManager/views/default/busca_aluno.html\', scode=\'response.write(\\\'<!DOCTYPE html>\\\\n<!--[if (gt IE ..."></script>\\\\n\\\\n</body>\\\\n\\\\n</html>\\\', escape=False)\')'
p86
sS'func'
p87
S'restricted'
p88
sa(dp89
g64
S'/home/leonardo/Downloads/web2py/applications/KidsAppManager/views/default/busca_aluno.html'
p90
sg66
(dp91
S'button'
p92
S'undefined'
p93
sS'data'
p94
g93
sS'toggle'
p95
g93
sS'builtintype'
p96
S"<type 'type'>"
p97
sS'target'
p98
g93
ssg72
I92
sg73
(dp99
I96
S'response.write(x.email)'
p100
sI97
S'response.write(\'" readonly="true">\\n            </div>\\n          </div>\\n        </div>\\n        <div class="form-row">\\n          <div class="col-md-6 mb-3">\\n            <label for="validationDefault03">Respons\\xc3\\xa1vel</label>\\n            <input type="text" class="form-control" name="c_resp" id="c_resp" placeholder="respons\\xc3\\xa1vel" value="\', escape=False)'
p101
sI98
S'response.write(x.nome_resp)'
p102
sI99
S'response.write(\'" readonly="true">\\n          </div>\\n          <div class="col-md-3 mb-3">\\n            <label for="validationDefault04">Sala</label>\\n            <input type="text" class="form-control" id="c_sala" name="c_sala" placeholder="Sala" value="\', escape=False)'
p103
sI100
S'response.write(x.sala_matriculado.nome_sala)'
p104
sI101
S'response.write(\'"\\n              readonly="true">\\n          </div>\\n  \\n          <div class="col-md-3 mb-3">\\n            <label for="validationDefault05">Cart\\xc3\\xa3o</label>\\n            <input type="text" class="form-control" id="c_cartao" name="c_cartao" placeholder="n\\xc2\\xba do Cart\\xc3\\xa3o" required>\\n          </div>\\n        </div>\\n        <div class="modal-footer">\\n          <button type="button" class="btn btn-secondary" data-dismiss="modal">Close</button>\\n          <button type="button" class="btn btn-primary">Save changes</button>\\n        </div>\\n      </div>\\n    </div>\\n  </div>\\n\\n\\n\\n</div>\\n\\n\\n\\n\\n  <!--Lista de Presen\\xc3\\xa7a -->\\n  </br>\\n  </br>\\n\\n  <div class="container">\\n    <div class="form-row">\\n      <div class="col-md-12">\\n        <h5 class="p-3 mb-2 bg-info text-white">Registros em \', escape=False)'
p105
sI102
S'response.write(data_registro)'
p106
sI83
S'        response.write(\'" readonly="true">\\n          </div>\\n        </div>\\n      </div>\\n      <div class="form-row">\\n        <div class="col-md-6 mb-3">\\n          <label for="validationDefault03">Respons\\xc3\\xa1vel</label>\\n          <input type="text" class="form-control" name="c_resp" id="c_resp" placeholder="respons\\xc3\\xa1vel" value="\', escape=False)'
p107
sI84
S'        response.write(x.nome_resp)'
p108
sI85
S'        response.write(\'" readonly="true">\\n        </div>\\n        <div class="col-md-3 mb-3">\\n          <label for="validationDefault04">Sala</label>\\n          <input type="text" class="form-control" id="c_sala" name="c_sala" placeholder="Sala" value="\', escape=False)'
p109
sI86
S'        response.write(x.sala_matriculado.nome_sala)'
p110
sI87
S'        response.write(\'"\\n            readonly="true">\\n        </div>\\n\\n        <div class="col-md-3 mb-3">\\n          <label for="validationDefault05">Cart\\xc3\\xa3o</label>\\n          <input type="text" class="form-control" id="c_cartao" name="c_cartao" placeholder="n\\xc2\\xba do Cart\\xc3\\xa3o" required>\\n        </div>\\n\\n      </div>\\n      <button class="btn btn-outline-primary" type="submit">Presente</button>\\n      <button class="btn btn-outline-warning" type="submit">Editar</button>\\n\\n    </div>\\n    \', escape=False)'
p111
sI88
S'        pass'
p112
sI89
S"    response.write('\\n    ', escape=False)"
p113
sI90
S'    pass'
p114
sI91
S'response.write(\'\\n    </div>\\n  </form>\\n</div>\\n\\n<div>\\n\\n\\n<!-- Button trigger modal -->\\n<button type="button" class="btn btn-primary" data-toggle="modal" data-target="#exampleModal">\\n    Launch demo modal\\n  </button>\\n  \\n  <!-- Modal -->\\n  <div class="modal fade" id="exampleModal" tabindex="-1" role="dialog" aria-labelledby="exampleModalLabel" aria-hidden="true">\\n    <div class="modal-dialog" role="document">\\n      <div class="modal-content">\\n        <div class="modal-header">\\n          <h5 class="modal-title" id="exampleModalLabel">Modal title</h5>\\n          <button type="button" class="close" data-dismiss="modal" aria-label="Close">\\n            <span aria-hidden="true">&times;</span>\\n          </button>\\n        </div>\\n        <div class="modal-body">\\n            <label "c_nome">Nome</label>\\n            <input id="c_nome" type="text" class="form-control" name="c_nome" placeholder="Aluno" value="\', escape=False)'
p115
sI92
S"response.write(x.nome_crianca or 'Nome')"
p116
sI93
S'response.write(\'"\\n              readonly="true">\\n          </div>\\n          <div class="col-md-4 mb-3">\\n            <label for="validationDefault02">Matricula</label>\\n            <input id="c_matricula" name="c_matricula" type="text" class="form-control" placeholder="n\\xc2\\xba da matr\\xc3\\xadcula" value="\', escape=False)'
p117
sI94
S'response.write(x.id)'
p118
sI95
S'response.write(\'"\\n              readonly="true">\\n          </div>\\n          <div class="col-md-4 mb-3">\\n            <label for="validationDefaultUsername">Email</label>\\n            <div class="input-group">\\n              <div class="input-group-prepend">\\n                <span class="input-group-text" id="inputGroupPrepend2">@</span>\\n              </div>\\n              <input id="c_email" name="c_email" type="text" class="form-control" placeholder="e-mail" aria-describedby="inputGroupPrepend2"\\n                value="\', escape=False)'
p119
ssg85
S'()'
p120
sg87
S'<module>'
p121
sasS'pyver'
p122
S'Python 2.7.15rc1: /usr/bin/python (prefix: /usr)'
p123
sS'session'
p124
g59
(S'ss\x08\x00\x00<div><table><tr><td style="font-weight:bold;vertical-align:top;">auth</td><td style="vertical-align:top;">:</td><td><div><table><tr><td style="font-weight:bold;vertical-align:top;">expiration</td><td style="vertical-align:top;">:</td><td><div>3600</div></td></tr><tr><td style="font-weight:bold;vertical-align:top;">hmac_key</td><td style="vertical-align:top;">:</td><td><div>77103a74-aa82-475c-9adf-7cbf1b4d67c2</div></td></tr><tr><td style="font-weight:bold;vertical-align:top;">last_visit</td><td style="vertical-align:top;">:</td><td><div>datetime.datetime(2018, 6, 28, 16, 48, 49, 959019)</div></td></tr><tr><td style="font-weight:bold;vertical-align:top;">remember_me</td><td style="vertical-align:top;">:</td><td><div>False</div></td></tr><tr><td style="font-weight:bold;vertical-align:top;">user</td><td style="vertical-align:top;">:</td><td><div><table><tr><td style="font-weight:bold;vertical-align:top;">email</td><td style="vertical-align:top;">:</td><td><div>leomanancial@hotmaill.com</div></td></tr><tr><td style="font-weight:bold;vertical-align:top;">first_name</td><td style="vertical-align:top;">:</td><td><div>Leonardo</div></td></tr><tr><td style="font-weight:bold;vertical-align:top;">id</td><td style="vertical-align:top;">:</td><td><div>1L</div></td></tr><tr><td style="font-weight:bold;vertical-align:top;">last_name</td><td style="vertical-align:top;">:</td><td><div>teste</div></td></tr><tr><td style="font-weight:bold;vertical-align:top;">registration_id</td><td style="vertical-align:top;">:</td><td><div></div></td></tr><tr><td style="font-weight:bold;vertical-align:top;">registration_key</td><td style="vertical-align:top;">:</td><td><div></div></td></tr><tr><td style="font-weight:bold;vertical-align:top;">reset_password_key</td><td style="vertical-align:top;">:</td><td><div></div></td></tr></table></div></td></tr><tr><td style="font-weight:bold;vertical-align:top;">user_groups</td><td style="vertical-align:top;">:</td><td><div><table></table></div></td></tr></table></div></td></tr><tr><td style="font-weight:bold;vertical-align:top;">flash</td><td style="vertical-align:top;">:</td><td><div>None</div></td></tr></table></div>'
tRp125
sS'etype'
p126
S"<type 'exceptions.NameError'>"
p127
sS'date'
p128
S'Thu Jun 28 16:51:30 2018'
p129
sS'response'
p130
g59
(S's\x9c\x1e\x00\x00<div><table><tr><td style="font-weight:bold;vertical-align:top;">body</td><td style="vertical-align:top;">:</td><td><div>&lt;cStringIO.StringO object at 0x7fc926a24e30&gt;</div></td></tr><tr><td style="font-weight:bold;vertical-align:top;">cookies</td><td style="vertical-align:top;">:</td><td><div><table><tr><td style="font-weight:bold;vertical-align:top;">session_id_kidsappmanager</td><td style="vertical-align:top;">:</td><td><div>127.0.0.1-ffff1d17-4eaf-4fb5-81db-e9469cc8704e<table><tr><td style="font-weight:bold;vertical-align:top;">comment</td><td style="vertical-align:top;">:</td><td><div></div></td></tr><tr><td style="font-weight:bold;vertical-align:top;">domain</td><td style="vertical-align:top;">:</td><td><div></div></td></tr><tr><td style="font-weight:bold;vertical-align:top;">expires</td><td style="vertical-align:top;">:</td><td><div></div></td></tr><tr><td style="font-weight:bold;vertical-align:top;">httponly</td><td style="vertical-align:top;">:</td><td><div></div></td></tr><tr><td style="font-weight:bold;vertical-align:top;">max-age</td><td style="vertical-align:top;">:</td><td><div></div></td></tr><tr><td style="font-weight:bold;vertical-align:top;">path</td><td style="vertical-align:top;">:</td><td><div>/</div></td></tr><tr><td style="font-weight:bold;vertical-align:top;">secure</td><td style="vertical-align:top;">:</td><td><div></div></td></tr><tr><td style="font-weight:bold;vertical-align:top;">version</td><td style="vertical-align:top;">:</td><td><div></div></td></tr></table></div></td></tr></table></div></td></tr><tr><td style="font-weight:bold;vertical-align:top;">delimiters</td><td style="vertical-align:top;">:</td><td><div><table><tr><td><div>{{</div></td></tr><tr><td><div>}}</div></td></tr></table></div></td></tr><tr><td style="font-weight:bold;vertical-align:top;">files</td><td style="vertical-align:top;">:</td><td><div><table><tr><td><div>/KidsAppManager/static/js/jquery.js</div></td></tr><tr><td><div>/KidsAppManager/static/css/calendar.css</div></td></tr><tr><td><div>/KidsAppManager/static/js/calendar.js</div></td></tr><tr><td><div>/KidsAppManager/static/js/web2py.js</div></td></tr></table></div></td></tr><tr><td style="font-weight:bold;vertical-align:top;">flash</td><td style="vertical-align:top;">:</td><td><div></div></td></tr><tr><td style="font-weight:bold;vertical-align:top;">form_label_separator</td><td style="vertical-align:top;">:</td><td><div></div></td></tr><tr><td style="font-weight:bold;vertical-align:top;">formstyle</td><td style="vertical-align:top;">:</td><td><div>bootstrap4_inline</div></td></tr><tr><td style="font-weight:bold;vertical-align:top;">generic_patterns</td><td style="vertical-align:top;">:</td><td><div><table><tr><td><div>*</div></td></tr></table></div></td></tr><tr><td style="font-weight:bold;vertical-align:top;">google_analytics_id</td><td style="vertical-align:top;">:</td><td><div>None</div></td></tr><tr><td style="font-weight:bold;vertical-align:top;">headers</td><td style="vertical-align:top;">:</td><td><div><table><tr><td style="font-weight:bold;vertical-align:top;">X-Powered-By</td><td style="vertical-align:top;">:</td><td><div>web2py</div></td></tr></table></div></td></tr><tr><td style="font-weight:bold;vertical-align:top;">menu</td><td style="vertical-align:top;">:</td><td><div><table><tr><td><div><table><tr><td><div>Principal</div></td></tr><tr><td><div>False</div></td></tr><tr><td><div>/KidsAppManager/default/index</div></td></tr><tr><td><div><table></table></div></td></tr></table></div></td></tr><tr><td><div><table><tr><td><div>Entrada</div></td></tr><tr><td><div>False</div></td></tr><tr><td><div>/KidsAppManager/default/entrada</div></td></tr><tr><td><div><table></table></div></td></tr></table></div></td></tr><tr><td><div><table><tr><td><div>Cadastro</div></td></tr><tr><td><div>False</div></td></tr><tr><td><div>/KidsAppManager/default/cadastro</div></td></tr><tr><td><div><table></table></div></td></tr></table></div></td></tr></table></div></td></tr><tr><td style="font-weight:bold;vertical-align:top;">meta</td><td style="vertical-align:top;">:</td><td><div><table><tr><td style="font-weight:bold;vertical-align:top;">author</td><td style="vertical-align:top;">:</td><td><div>Your Name &lt;you@example.com&gt;</div></td></tr><tr><td style="font-weight:bold;vertical-align:top;">description</td><td style="vertical-align:top;">:</td><td><div>a cool new app</div></td></tr><tr><td style="font-weight:bold;vertical-align:top;">generator</td><td style="vertical-align:top;">:</td><td><div>Web2py Web Framework</div></td></tr><tr><td style="font-weight:bold;vertical-align:top;">keywords</td><td style="vertical-align:top;">:</td><td><div><table><tr><td><div>web2py</div></td></tr><tr><td><div>python</div></td></tr><tr><td><div>framework</div></td></tr></table></div></td></tr></table></div></td></tr><tr><td style="font-weight:bold;vertical-align:top;">models_to_run</td><td style="vertical-align:top;">:</td><td><div><table><tr><td><div>^\\w+\\.py$</div></td></tr><tr><td><div>^default/\\w+\\.py$</div></td></tr><tr><td><div>^default/busca_aluno/\\w+\\.py$</div></td></tr></table></div></td></tr><tr><td style="font-weight:bold;vertical-align:top;">postprocessing</td><td style="vertical-align:top;">:</td><td><div><table></table></div></td></tr><tr><td style="font-weight:bold;vertical-align:top;">session_client</td><td style="vertical-align:top;">:</td><td><div>127.0.0.1</div></td></tr><tr><td style="font-weight:bold;vertical-align:top;">session_cookie_compression_level</td><td style="vertical-align:top;">:</td><td><div>None</div></td></tr><tr><td style="font-weight:bold;vertical-align:top;">session_cookie_expires</td><td style="vertical-align:top;">:</td><td><div>None</div></td></tr><tr><td style="font-weight:bold;vertical-align:top;">session_data_name</td><td style="vertical-align:top;">:</td><td><div>session_data_kidsappmanager</div></td></tr><tr><td style="font-weight:bold;vertical-align:top;">session_file</td><td style="vertical-align:top;">:</td><td><div>&lt;open file &#x27;/home/leonardo/Downloads/web2py/applications/KidsAppManager/sessions/016/01c/127.0.0.1-ffff1d17-4eaf-4fb5-81db-e9469cc8704e&#x27;, mode &#x27;rb+&#x27; at 0x7fc926fd0a50&gt;</div></td></tr><tr><td style="font-weight:bold;vertical-align:top;">session_filename</td><td style="vertical-align:top;">:</td><td><div>/home/leonardo/Downloads/web2py/applications/KidsAppManager/sessions/127.0.0.1-ffff1d17-4eaf-4fb5-81db-e9469cc8704e</div></td></tr><tr><td style="font-weight:bold;vertical-align:top;">session_hash</td><td style="vertical-align:top;">:</td><td><div>555a19467f4f9ff909da76ff6efeaf46</div></td></tr><tr><td style="font-weight:bold;vertical-align:top;">session_id</td><td style="vertical-align:top;">:</td><td><div>127.0.0.1-ffff1d17-4eaf-4fb5-81db-e9469cc8704e</div></td></tr><tr><td style="font-weight:bold;vertical-align:top;">session_id_name</td><td style="vertical-align:top;">:</td><td><div>session_id_kidsappmanager</div></td></tr><tr><td style="font-weight:bold;vertical-align:top;">session_locked</td><td style="vertical-align:top;">:</td><td><div>True</div></td></tr><tr><td style="font-weight:bold;vertical-align:top;">session_masterapp</td><td style="vertical-align:top;">:</td><td><div>KidsAppManager</div></td></tr><tr><td style="font-weight:bold;vertical-align:top;">session_new</td><td style="vertical-align:top;">:</td><td><div>False</div></td></tr><tr><td style="font-weight:bold;vertical-align:top;">session_storage_type</td><td style="vertical-align:top;">:</td><td><div>file</div></td></tr><tr><td style="font-weight:bold;vertical-align:top;">status</td><td style="vertical-align:top;">:</td><td><div>200</div></td></tr><tr><td style="font-weight:bold;vertical-align:top;">view</td><td style="vertical-align:top;">:</td><td><div>default/busca_aluno.html</div></td></tr></table></div>'
tRp131
sS'locals'
p132
(dp133
S'PY2'
p134
S'True'
p135
sS'OBJECT'
p136
S"<class 'gluon.html.OBJECT'>"
p137
sS'SQLDB'
p138
S"<class 'pydal.base.DAL'>"
p139
sg124
S"<Storage {'_formkey[equipe/create]': ['14a15abd-...4ea85', '862739ba-a059-4f1a-b453-7b8e25dbea71']}>"
p140
sS'LINK'
p141
S"<class 'gluon.html.LINK'>"
p142
sS'BR'
p143
S"<class 'gluon.html.BR'>"
p144
sS'local_import'
p145
S'<function <lambda>>'
p146
sS'OPTGROUP'
p147
S"<class 'gluon.html.OPTGROUP'>"
p148
sS'__package__'
p149
S'None'
p150
sg58
S"<Storage {'_vars': <Storage {}>, 'function': 'bu.../Downloads/web2py/applications/KidsAppManager/'}>"
p151
sS'PRE'
p152
S"<class 'gluon.html.PRE'>"
p153
sS'IS_INT_IN_RANGE'
p154
S"<class 'gluon.validators.IS_INT_IN_RANGE'>"
p155
sS'to_bytes'
p156
S'<function to_bytes>'
p157
sS'data_atual'
p158
S'datetime.date(2018, 6, 28)'
p159
sS'IS_LOWER'
p160
S"<class 'gluon.validators.IS_LOWER'>"
p161
sS'IS_STRONG'
p162
S"<class 'gluon.validators.IS_STRONG'>"
p163
sS'cache'
p164
S'<gluon.cache.Cache object>'
p165
sS'IS_IN_DB'
p166
S"<class 'gluon.validators.IS_IN_DB'>"
p167
sS'TAG'
p168
S'<gluon.html.__TAG__ object>'
p169
sS'SQLField'
p170
S"<class 'pydal.objects.Field'>"
p171
sS'mail'
p172
S'<gluon.tools.Mail object>'
p173
sS'cod_presenca'
p174
S"'20180628'"
p175
sS'BODY'
p176
S"<class 'gluon.html.BODY'>"
p177
sS'IS_DATE_IN_RANGE'
p178
S"<class 'gluon.validators.IS_DATE_IN_RANGE'>"
p179
sS'IFRAME'
p180
S"<class 'gluon.html.IFRAME'>"
p181
sS'URL'
p182
S'<function URL>'
p183
sS'__file__'
p184
S"'/home/leonardo/Downloads/web2py/applications/KidsAppManager/views/default/busca_aluno.html'"
p185
sS'db'
p186
S'<DAL uri="mysql:******@localhost/kids2">'
p187
sS'auth'
p188
S'<gluon.tools.Auth object>'
p189
sS'P'
S"<class 'gluon.html.P'>"
p190
sS'TFOOT'
p191
S"<class 'gluon.html.TFOOT'>"
p192
sS'iteritems'
p193
S'<function <lambda>>'
p194
sS'XHTML'
p195
S"<class 'gluon.html.XHTML'>"
p196
sS'ON'
p197
g135
sS'OL'
p198
S"<class 'gluon.html.OL'>"
p199
sS'TEXTAREA'
p200
S"<class 'gluon.html.TEXTAREA'>"
p201
sS'MENU'
p202
S"<class 'gluon.html.MENU'>"
p203
sS'frequencia'
p204
S"''"
p205
sS'IS_IMAGE'
p206
S"<class 'gluon.validators.IS_IMAGE'>"
p207
sS'EM'
p208
S"<class 'gluon.html.EM'>"
p209
sS'CODE'
p210
S"<class 'gluon.html.CODE'>"
p211
sS'HTTP'
p212
S"<class 'gluon.http.HTTP'>"
p213
sS'HR'
p214
S"<class 'gluon.html.HR'>"
p215
sS'IS_DATETIME'
p216
S"<class 'gluon.validators.IS_DATETIME'>"
p217
sS'reduce'
p218
S'<built-in function reduce>'
p219
sS'STYLE'
p220
S"<class 'gluon.html.STYLE'>"
p221
sS'LABEL'
p222
S"<class 'gluon.html.LABEL'>"
p223
sS'CLEANUP'
p224
S"<class 'gluon.validators.CLEANUP'>"
p225
sS'campoNome'
p226
S"''"
p227
sS'SELECT'
p228
S"<class 'gluon.html.SELECT'>"
p229
sS'CENTER'
p230
S"<class 'gluon.html.CENTER'>"
p231
sS'Auth'
p232
S"<class 'gluon.tools.Auth'>"
p233
sS'__builtins__'
p234
S"{'ArithmeticError': <type 'exceptions.ArithmeticError'>, 'AssertionError': <type 'exceptions.AssertionError'>, 'AttributeError': <type 'exceptions.AttributeError'>, 'BaseException': <type 'exceptions.BaseException'>, 'BufferError': <type 'exceptions.BufferError'>, 'BytesWarning': <type 'exceptions.BytesWarning'>, 'DeprecationWarning': <type 'exceptions.DeprecationWarning'>, 'EOFError': <type 'exceptions.EOFError'>, 'Ellipsis': Ellipsis, 'EnvironmentError': <type 'exceptions.EnvironmentError'>, ...}"
p235
sS'HTML'
p236
S"<class 'gluon.html.HTML'>"
p237
sS'SQLFORM'
p238
S"<class 'gluon.sqlhtml.SQLFORM'>"
p239
sS'LOAD'
p240
S'<function LOAD>'
p241
sS'redirect'
p242
S'<function redirect>'
p243
sS'FIELDSET'
p244
S"<class 'gluon.html.FIELDSET'>"
p245
sS'IS_EQUAL_TO'
p246
S"<class 'gluon.validators.IS_EQUAL_TO'>"
p247
sS'embed64'
p248
S'<function embed64>'
p249
sS'IS_LIST_OF'
p250
S"<class 'gluon.validators.IS_LIST_OF'>"
p251
sS'INPUT'
p252
S"<class 'gluon.html.INPUT'>"
p253
sS'EMBED'
p254
S"<class 'gluon.html.EMBED'>"
p255
sS'configuration'
p256
S"{'host': {'names': 'localhost:*, 127.0.0.1:*, *:...': 'sqlite://storage.sqlite', 'pool_size': '10'}}"
p257
sS'H2'
p258
S"<class 'gluon.html.H2'>"
p259
sS'H3'
p260
S"<class 'gluon.html.H3'>"
p261
sS'AppConfig'
p262
S'<function AppConfig>'
p263
sS'H1'
p264
S"<class 'gluon.html.H1'>"
p265
sS'H6'
p266
S"<class 'gluon.html.H6'>"
p267
sS'H4'
p268
S"<class 'gluon.html.H4'>"
p269
sS'H5'
p270
S"<class 'gluon.html.H5'>"
p271
sS'UL'
p272
S"<class 'gluon.html.UL'>"
p273
sS'IS_UPPER'
p274
S"<class 'gluon.validators.IS_UPPER'>"
p275
sS'xmlescape'
p276
S'<function xmlescape>'
p277
sS'IS_TIME'
p278
S"<class 'gluon.validators.IS_TIME'>"
p279
sS'nao_encontrado'
p280
S"''"
p281
sS'OPTION'
p282
S"<class 'gluon.html.OPTION'>"
p283
sS'TITLE'
p284
S"<class 'gluon.html.TITLE'>"
p285
sS'CRYPT'
p286
S"<class 'gluon.validators.CRYPT'>"
p287
sS'IS_EMPTY_OR'
p288
S"<class 'gluon.validators.IS_EMPTY_OR'>"
p289
sS'MARKMIN'
p290
S"<class 'gluon.html.MARKMIN'>"
p291
sS'__name__'
p292
S"'__restricted__'"
p293
sS'STRONG'
p294
S"<class 'gluon.html.STRONG'>"
p295
sS'COL'
p296
S"<class 'gluon.html.COL'>"
p297
sS'SCRIPT'
p298
S"<class 'gluon.html.SCRIPT'>"
p299
sS'TABLE'
p300
S"<class 'gluon.html.TABLE'>"
p301
sS'IS_IPV4'
p302
S"<class 'gluon.validators.IS_IPV4'>"
p303
sS'IS_LENGTH'
p304
S"<class 'gluon.validators.IS_LENGTH'>"
p305
sS'IS_IPV6'
p306
S"<class 'gluon.validators.IS_IPV6'>"
p307
sS'XML'
p308
S"<class 'gluon.html.XML'>"
p309
sS'B'
S"<class 'gluon.html.B'>"
p310
sS'dados'
p311
S"''"
p312
sS'IMG'
p313
S"<class 'gluon.html.IMG'>"
p314
sS'SQLTABLE'
p315
S"<class 'gluon.sqlhtml.SQLTABLE'>"
p316
sS'IS_MATCH'
p317
S"<class 'gluon.validators.IS_MATCH'>"
p318
sS'IS_ALPHANUMERIC'
p319
S"<class 'gluon.validators.IS_ALPHANUMERIC'>"
p320
sS'lista'
p321
S'[]'
p322
sS'SPAN'
p323
S"<class 'gluon.html.SPAN'>"
p324
sS'IS_JSON'
p325
S"<class 'gluon.validators.IS_JSON'>"
p326
sS'f'
S"''"
p327
sS'IS_IPADDRESS'
p328
S"<class 'gluon.validators.IS_IPADDRESS'>"
p329
sS'IS_SLUG'
p330
S"<class 'gluon.validators.IS_SLUG'>"
p331
sS'data_registro'
p332
S"'28/06/2018'"
p333
sS'BEAUTIFY'
p334
S"<class 'gluon.html.BEAUTIFY'>"
p335
sS'META'
p336
S"<class 'gluon.html.META'>"
p337
sS'pres'
p338
S'[]'
p339
sS'BUTTON'
p340
S"<class 'gluon.html.BUTTON'>"
p341
sS'IS_DATE'
p342
S"<class 'gluon.validators.IS_DATE'>"
p343
sS'IS_EMAIL'
p344
S"<class 'gluon.validators.IS_EMAIL'>"
p345
sS'IS_NOT_EMPTY'
p346
S"<class 'gluon.validators.IS_NOT_EMPTY'>"
p347
sS'xrange'
p348
S"<type 'xrange'>"
p349
sS'TBODY'
p350
S"<class 'gluon.html.TBODY'>"
p351
sS'CAT'
p352
S"<class 'gluon.html.CAT'>"
p353
sS'Field'
p354
S"<class 'pydal.objects.Field'>"
p355
sS'o'
S"''"
p356
sS'IS_LIST_OF_EMAILS'
p357
S"<class 'gluon.validators.IS_LIST_OF_EMAILS'>"
p358
sS'LEGEND'
p359
S"<class 'gluon.html.LEGEND'>"
p360
sS'DIV'
p361
S"<class 'gluon.html.DIV'>"
p362
sS'check'
p363
S"''"
p364
sS'to_native'
p365
S'<function to_native>'
p366
sS'COLGROUP'
p367
S"<class 'gluon.html.COLGROUP'>"
p368
sS'DAL'
p369
S"<class 'pydal.base.DAL'>"
p370
sS'ASSIGNJS'
p371
S'<function ASSIGNJS>'
p372
sS'TR'
p373
S"<class 'gluon.html.TR'>"
p374
sS'LI'
p375
S"<class 'gluon.html.LI'>"
p376
sS'TH'
p377
S"<class 'gluon.html.TH'>"
p378
sS'TD'
p379
S"<class 'gluon.html.TD'>"
p380
sS'IS_URL'
p381
S"<class 'gluon.validators.IS_URL'>"
p382
sS'A'
S"<class 'gluon.html.A'>"
p383
sS'HEAD'
p384
S"<class 'gluon.html.HEAD'>"
p385
sS'IS_DATETIME_IN_RANGE'
p386
S"<class 'gluon.validators.IS_DATETIME_IN_RANGE'>"
p387
sS'FORM'
p388
S"<class 'gluon.html.FORM'>"
p389
sS'I'
S"<class 'gluon.html.I'>"
p390
sS'm'
S'<Rows (3)>'
p391
sS'IS_NOT_IN_DB'
p392
S"<class 'gluon.validators.IS_NOT_IN_DB'>"
p393
sg130
S"<Storage {'body': <cStringIO.StringO object at 0...c926bca500>, 'view': 'default/busca_aluno.html'}>"
p394
sS'THEAD'
p395
S"<class 'gluon.html.THEAD'>"
p396
sS'ANY_OF'
p397
S"<class 'gluon.validators.ANY_OF'>"
p398
sS'IS_NULL_OR'
p399
S"<class 'gluon.validators.IS_EMPTY_OR'>"
p400
sS'campo'
p401
S"''"
p402
sS'IS_FLOAT_IN_RANGE'
p403
S"<class 'gluon.validators.IS_FLOAT_IN_RANGE'>"
p404
sS'IS_EXPR'
p405
S"<class 'gluon.validators.IS_EXPR'>"
p406
sS'T'
S'<gluon.languages.translator object>'
p407
sS'IS_IN_SET'
p408
S"<class 'gluon.validators.IS_IN_SET'>"
p409
sS'IS_UPLOAD_FILENAME'
p410
S"<class 'gluon.validators.IS_UPLOAD_FILENAME'>"
p411
sS'TT'
p412
S"<class 'gluon.html.TT'>"
p413
sS'IS_DECIMAL_IN_RANGE'
p414
S"<class 'gluon.validators.IS_DECIMAL_IN_RANGE'>"
p415
sssS'traceback'
p416
S'Traceback (most recent call last):\n  File "/home/leonardo/Downloads/web2py/gluon/restricted.py", line 219, in restricted\n    exec(ccode, environment)\n  File "/home/leonardo/Downloads/web2py/applications/KidsAppManager/views/default/busca_aluno.html", line 92, in <module>\n    <button type="button" class="btn btn-primary" data-toggle="modal" data-target="#exampleModal">\nNameError: name \'x\' is not defined\n'
p417
s.