(dp1
S'output'
p2
S"<type 'exceptions.NameError'> global name 'cod_presenca' is not defined"
p3
sS'layer'
p4
S'/home/leonardo/Downloads/web2py/applications/KidsAppManager/controllers/default.py'
p5
sS'code'
p6
S'<code object <module> at 0x7fc94460bdb0, file "/home/leonardo/Downloads/web2py/applications/KidsAppManager/controllers/default.py", line 9>'
p7
sS'snapshot'
p8
(dp9
sS'traceback'
p10
S'Traceback (most recent call last):\n  File "/home/leonardo/Downloads/web2py/gluon/restricted.py", line 219, in restricted\n    exec(ccode, environment)\n  File "/home/leonardo/Downloads/web2py/applications/KidsAppManager/controllers/default.py", line 261, in <module>\n  File "/home/leonardo/Downloads/web2py/gluon/globals.py", line 419, in <lambda>\n    self._caller = lambda f: f()\n  File "/home/leonardo/Downloads/web2py/applications/KidsAppManager/controllers/default.py", line 244, in reg_Freq\n    if db((db.frequencia.matric_aluno == request.vars.c_matricula) & (db.frequencia.cod_presenca == cod_presenca)).select():\nNameError: global name \'cod_presenca\' is not defined\n'
p11
s.