(dp1
S'output'
p2
S"<type 'exceptions.AttributeError'> 'DAL' object has no attribute 'main.js'"
p3
sS'layer'
p4
S'/home/leonardo/Downloads/web2py/applications/KidsAppManager/controllers/default.py'
p5
sS'code'
p6
S'<code object <module> at 0x7fbf942ab6b0, file "/home/leonardo/Downloads/web2py/applications/KidsAppManager/controllers/default.py", line 9>'
p7
sS'snapshot'
p8
(dp9
sS'traceback'
p10
S'Traceback (most recent call last):\n  File "/home/leonardo/Downloads/web2py/gluon/restricted.py", line 219, in restricted\n    exec(ccode, environment)\n  File "/home/leonardo/Downloads/web2py/applications/KidsAppManager/controllers/default.py", line 117, in <module>\n  File "/home/leonardo/Downloads/web2py/gluon/globals.py", line 419, in <lambda>\n    self._caller = lambda f: f()\n  File "/home/leonardo/Downloads/web2py/applications/KidsAppManager/controllers/default.py", line 110, in lista_presenca\n    return dict(grid=SQLFORM.smartgrid(db.frequencia,linked_tables=[\'frequencia\'],user_signature=False))\n  File "/home/leonardo/Downloads/web2py/gluon/sqlhtml.py", line 3338, in smartgrid\n    user_signature=user_signature, **kwargs)\n  File "/home/leonardo/Downloads/web2py/gluon/sqlhtml.py", line 2524, in grid\n    table = db[request.args[-1]]\n  File "/home/leonardo/Downloads/web2py/gluon/packages/dal/pydal/base.py", line 662, in __getitem__\n    return self.__getattr__(str(key))\n  File "/home/leonardo/Downloads/web2py/gluon/packages/dal/pydal/base.py", line 669, in __getattr__\n    return BasicStorage.__getattribute__(self, key)\nAttributeError: \'DAL\' object has no attribute \'main.js\'\n'
p11
s.