(dp1
S'output'
p2
S"<type 'exceptions.SyntaxError'> Set: no tables selected"
p3
sS'layer'
p4
S'/home/leonardo/Downloads/web2py/applications/KidsAppManager/controllers/default.py'
p5
sS'code'
p6
S'<code object <module> at 0x7f2f606e6130, file "/home/leonardo/Downloads/web2py/applications/KidsAppManager/controllers/default.py", line 9>'
p7
sS'snapshot'
p8
(dp9
sS'traceback'
p10
S'Traceback (most recent call last):\n  File "/home/leonardo/Downloads/web2py/gluon/restricted.py", line 219, in restricted\n    exec(ccode, environment)\n  File "/home/leonardo/Downloads/web2py/applications/KidsAppManager/controllers/default.py", line 142, in <module>\n  File "/home/leonardo/Downloads/web2py/gluon/globals.py", line 419, in <lambda>\n    self._caller = lambda f: f()\n  File "/home/leonardo/Downloads/web2py/applications/KidsAppManager/controllers/default.py", line 127, in busca_aluno\n    if db(db.frequencia.nome is not \'\').select():\n  File "/home/leonardo/Downloads/web2py/gluon/packages/dal/pydal/objects.py", line 2250, in select\n    return adapter.select(self.query, fields, attributes)\n  File "/home/leonardo/Downloads/web2py/gluon/packages/dal/pydal/adapters/base.py", line 757, in select\n    colnames, sql = self._select_wcols(query, fields, **attributes)\n  File "/home/leonardo/Downloads/web2py/gluon/packages/dal/pydal/adapters/base.py", line 604, in _select_wcols\n    raise SyntaxError(\'Set: no tables selected\')\nSyntaxError: Set: no tables selected\n'
p11
s.