(dp1
S'output'
p2
S"<class 'pickle.PicklingError'> Can't pickle <function wrapped at 0x7f92686aab90>: it's not found as pydal.helpers.methods.wrapped"
p3
sS'layer'
p4
S'/home/leonardo/Downloads/web2py/applications/KidsAppManager/models/db.py'
p5
sS'code'
p6
S'<code object <module> at 0x7f9270396e30, file "/home/leonardo/Downloads/web2py/applications/KidsAppManager/models/db.py", line 7>'
p7
sS'snapshot'
p8
(dp9
S'exception'
p10
(dp11
S'__module__'
p12
S"'pickle'"
p13
sS'__getslice__'
p14
S"<method-wrapper '__getslice__' of PicklingError object>"
p15
sS'__str__'
p16
S"<method-wrapper '__str__' of PicklingError object>"
p17
sS'__reduce__'
p18
S'<built-in method __reduce__ of PicklingError object>'
p19
sS'__dict__'
p20
S'{}'
p21
sS'__sizeof__'
p22
S'<built-in method __sizeof__ of PicklingError object>'
p23
sS'__weakref__'
p24
S'None'
p25
sS'message'
p26
S'"Can\'t pickle <function wrapped at 0x7f92686aab90>: it\'s not found as pydal.helpers.methods.wrapped"'
p27
sS'__init__'
p28
S"<method-wrapper '__init__' of PicklingError object>"
p29
sS'__setattr__'
p30
S"<method-wrapper '__setattr__' of PicklingError object>"
p31
sS'__reduce_ex__'
p32
S'<built-in method __reduce_ex__ of PicklingError object>'
p33
sS'__new__'
p34
S'<built-in method __new__ of type object>'
p35
sS'__format__'
p36
S'<built-in method __format__ of PicklingError object>'
p37
sS'__class__'
p38
S"<class 'pickle.PicklingError'>"
p39
sS'__doc__'
p40
S"'This exception is raised when an unpicklable object is passed to the\\n    dump() method.\\n\\n    '"
p41
sS'__getitem__'
p42
S"<method-wrapper '__getitem__' of PicklingError object>"
p43
sS'__setstate__'
p44
S'<built-in method __setstate__ of PicklingError object>'
p45
sS'__getattribute__'
p46
S"<method-wrapper '__getattribute__' of PicklingError object>"
p47
sS'args'
p48
S'("Can\'t pickle <function wrapped at 0x7f92686aab90>: it\'s not found as pydal.helpers.methods.wrapped",)'
p49
sS'__subclasshook__'
p50
S'<built-in method __subclasshook__ of type object>'
p51
sS'__unicode__'
p52
S'<built-in method __unicode__ of PicklingError object>'
p53
sS'__delattr__'
p54
S"<method-wrapper '__delattr__' of PicklingError object>"
p55
sS'__repr__'
p56
S"<method-wrapper '__repr__' of PicklingError object>"
p57
sS'__hash__'
p58
S"<method-wrapper '__hash__' of PicklingError object>"
p59
ssS'evalue'
p60
S"Can't pickle <function wrapped at 0x7f92686aab90>: it's not found as pydal.helpers.methods.wrapped"
p61
sS'request'
p62
cgluon.html
XML_unpickle
p63
(S's]Z\x00\x00<div><table><tr><td style="font-weight:bold;vertical-align:top;">ajax</td><td style="vertical-align:top;">:</td><td><div>False</div></td></tr><tr><td style="font-weight:bold;vertical-align:top;">application</td><td style="vertical-align:top;">:</td><td><div>KidsAppManager</div></td></tr><tr><td style="font-weight:bold;vertical-align:top;">args</td><td style="vertical-align:top;">:</td><td><div><table></table></div></td></tr><tr><td style="font-weight:bold;vertical-align:top;">cid</td><td style="vertical-align:top;">:</td><td><div>None</div></td></tr><tr><td style="font-weight:bold;vertical-align:top;">client</td><td style="vertical-align:top;">:</td><td><div>127.0.0.1</div></td></tr><tr><td style="font-weight:bold;vertical-align:top;">controller</td><td style="vertical-align:top;">:</td><td><div>default</div></td></tr><tr><td style="font-weight:bold;vertical-align:top;">cookies</td><td style="vertical-align:top;">:</td><td><div><table><tr><td style="font-weight:bold;vertical-align:top;">session_id_admin</td><td style="vertical-align:top;">:</td><td><div>127.0.0.1-ce796df0-367a-45fc-b21e-84592f3091ae<table><tr><td style="font-weight:bold;vertical-align:top;">comment</td><td style="vertical-align:top;">:</td><td><div></div></td></tr><tr><td style="font-weight:bold;vertical-align:top;">domain</td><td style="vertical-align:top;">:</td><td><div></div></td></tr><tr><td style="font-weight:bold;vertical-align:top;">expires</td><td style="vertical-align:top;">:</td><td><div></div></td></tr><tr><td style="font-weight:bold;vertical-align:top;">httponly</td><td style="vertical-align:top;">:</td><td><div></div></td></tr><tr><td style="font-weight:bold;vertical-align:top;">max-age</td><td style="vertical-align:top;">:</td><td><div></div></td></tr><tr><td style="font-weight:bold;vertical-align:top;">path</td><td style="vertical-align:top;">:</td><td><div></div></td></tr><tr><td style="font-weight:bold;vertical-align:top;">secure</td><td style="vertical-align:top;">:</td><td><div></div></td></tr><tr><td style="font-weight:bold;vertical-align:top;">version</td><td style="vertical-align:top;">:</td><td><div></div></td></tr></table></div></td></tr><tr><td style="font-weight:bold;vertical-align:top;">session_id_kidsappmanager</td><td style="vertical-align:top;">:</td><td><div>127.0.0.1-733b7e1d-73a5-4403-93ad-d0e72f4ad5f7<table><tr><td style="font-weight:bold;vertical-align:top;">comment</td><td style="vertical-align:top;">:</td><td><div></div></td></tr><tr><td style="font-weight:bold;vertical-align:top;">domain</td><td style="vertical-align:top;">:</td><td><div></div></td></tr><tr><td style="font-weight:bold;vertical-align:top;">expires</td><td style="vertical-align:top;">:</td><td><div></div></td></tr><tr><td style="font-weight:bold;vertical-align:top;">httponly</td><td style="vertical-align:top;">:</td><td><div></div></td></tr><tr><td style="font-weight:bold;vertical-align:top;">max-age</td><td style="vertical-align:top;">:</td><td><div></div></td></tr><tr><td style="font-weight:bold;vertical-align:top;">path</td><td style="vertical-align:top;">:</td><td><div></div></td></tr><tr><td style="font-weight:bold;vertical-align:top;">secure</td><td style="vertical-align:top;">:</td><td><div></div></td></tr><tr><td style="font-weight:bold;vertical-align:top;">version</td><td style="vertical-align:top;">:</td><td><div></div></td></tr></table></div></td></tr></table></div></td></tr><tr><td style="font-weight:bold;vertical-align:top;">env</td><td style="vertical-align:top;">:</td><td><div><table><tr><td style="font-weight:bold;vertical-align:top;">HTTP_ACCEPT</td><td style="vertical-align:top;">:</td><td><div>text/html,application/xhtml+xml,application/xml;q=0.9,image/webp,image/apng,*/*;q=0.8</div></td></tr><tr><td style="font-weight:bold;vertical-align:top;">HTTP_ACCEPT_ENCODING</td><td style="vertical-align:top;">:</td><td><div>gzip, deflate, br</div></td></tr><tr><td style="font-weight:bold;vertical-align:top;">HTTP_ACCEPT_LANGUAGE</td><td style="vertical-align:top;">:</td><td><div>pt-BR,pt;q=0.9,en-US;q=0.8,en;q=0.7</div></td></tr><tr><td style="font-weight:bold;vertical-align:top;">HTTP_CACHE_CONTROL</td><td style="vertical-align:top;">:</td><td><div>max-age=0</div></td></tr><tr><td style="font-weight:bold;vertical-align:top;">HTTP_CONNECTION</td><td style="vertical-align:top;">:</td><td><div>keep-alive</div></td></tr><tr><td style="font-weight:bold;vertical-align:top;">HTTP_COOKIE</td><td style="vertical-align:top;">:</td><td><div>session_id_admin=127.0.0.1-ce796df0-367a-45fc-b21e-84592f3091ae; session_id_kidsappmanager=127.0.0.1-733b7e1d-73a5-4403-93ad-d0e72f4ad5f7</div></td></tr><tr><td style="font-weight:bold;vertical-align:top;">HTTP_HOST</td><td style="vertical-align:top;">:</td><td><div>127.0.0.1:8000</div></td></tr><tr><td style="font-weight:bold;vertical-align:top;">HTTP_REFERER</td><td style="vertical-align:top;">:</td><td><div>http://127.0.0.1:8000/KidsAppManager/default/busca_aluno?nome_kids=Arthur&amp;lista_presenca=</div></td></tr><tr><td style="font-weight:bold;vertical-align:top;">HTTP_UPGRADE_INSECURE_REQUESTS</td><td style="vertical-align:top;">:</td><td><div>1</div></td></tr><tr><td style="font-weight:bold;vertical-align:top;">HTTP_USER_AGENT</td><td style="vertical-align:top;">:</td><td><div>Mozilla/5.0 (X11; Linux x86_64) AppleWebKit/537.36 (KHTML, like Gecko) Chrome/67.0.3396.87 Safari/537.36</div></td></tr><tr><td style="font-weight:bold;vertical-align:top;">PATH_INFO</td><td style="vertical-align:top;">:</td><td><div>/KidsAppManager/default/busca_aluno</div></td></tr><tr><td style="font-weight:bold;vertical-align:top;">QUERY_STRING</td><td style="vertical-align:top;">:</td><td><div>c_nome=Arthur&amp;c_matricula=6&amp;c_email=leomanancial%40hotmail.com&amp;c_resp=Leo&amp;c_sala=Amarela&amp;c_cartao=</div></td></tr><tr><td style="font-weight:bold;vertical-align:top;">REMOTE_ADDR</td><td style="vertical-align:top;">:</td><td><div>127.0.0.1</div></td></tr><tr><td style="font-weight:bold;vertical-align:top;">REMOTE_PORT</td><td style="vertical-align:top;">:</td><td><div>56818</div></td></tr><tr><td style="font-weight:bold;vertical-align:top;">REQUEST_METHOD</td><td style="vertical-align:top;">:</td><td><div>GET</div></td></tr><tr><td style="font-weight:bold;vertical-align:top;">SCRIPT_NAME</td><td style="vertical-align:top;">:</td><td><div></div></td></tr><tr><td style="font-weight:bold;vertical-align:top;">SERVER_NAME</td><td style="vertical-align:top;">:</td><td><div>Unknow</div></td></tr><tr><td style="font-weight:bold;vertical-align:top;">SERVER_PORT</td><td style="vertical-align:top;">:</td><td><div>8000</div></td></tr><tr><td style="font-weight:bold;vertical-align:top;">SERVER_PROTOCOL</td><td style="vertical-align:top;">:</td><td><div>HTTP/1.1</div></td></tr><tr><td style="font-weight:bold;vertical-align:top;">SERVER_SOFTWARE</td><td style="vertical-align:top;">:</td><td><div>Rocket 1.2.6</div></td></tr><tr><td style="font-weight:bold;vertical-align:top;">app_folders</td><td style="vertical-align:top;">:</td><td><div>set([&#x27;/home/leonardo/Downloads/web2py/applications/KidsAppManager/&#x27;, &#x27;/home/leonardo/Downloads/web2py/applications/admin/&#x27;])</div></td></tr><tr><td style="font-weight:bold;vertical-align:top;">applications_parent</td><td style="vertical-align:top;">:</td><td><div>/home/leonardo/Downloads/web2py</div></td></tr><tr><td style="font-weight:bold;vertical-align:top;">cmd_args</td><td style="vertical-align:top;">:</td><td><div><table></table></div></td></tr><tr><td style="font-weight:bold;vertical-align:top;">cmd_options</td><td style="vertical-align:top;">:</td><td><div>&lt;Values at 0x7f92718a38c0: {&#x27;verbose&#x27;: False, &#x27;ip&#x27;: &#x27;127.0.0.1&#x27;, &#x27;debuglevel&#x27;: 30, &#x27;with_scheduler&#x27;: False, &#x27;shutdown_timeout&#x27;: 5, &#x27;taskbar&#x27;: False, &#x27;with_coverage&#x27;: False, &#x27;pid_filename&#x27;: &#x27;httpserver.pid&#x27;, &#x27;maxthreads&#x27;: None, &#x27;softcron&#x27;: False, &#x27;server_name&#x27;: &#x27;Unknow&#x27;, &#x27;bpython&#x27;: False, &#x27;nogui&#x27;: False, &#x27;port&#x27;: 8000, &#x27;print_errors&#x27;: False, &#x27;extcron&#x27;: False, &#x27;runcron&#x27;: False, &#x27;run_system_tests&#x27;: False, &#x27;test&#x27;: None, &#x27;folder&#x27;: &#x27;/home/leonardo/Downloads/web2py&#x27;, &#x27;config&#x27;: &#x27;&#x27;, &#x27;minthreads&#x27;: None, &#x27;shell&#x27;: None, &#x27;run&#x27;: &#x27;&#x27;, &#x27;log_filename&#x27;: &#x27;httpserver.log&#x27;, &#x27;profiler_dir&#x27;: None, &#x27;args&#x27;: [&#x27;&#x27;], &#x27;socket_timeout&#x27;: 5, &#x27;ssl_ca_certificate&#x27;: None, &#x27;scheduler&#x27;: None, &#x27;interfaces&#x27;: None, &#x27;ssl_private_key&#x27;: &#x27;&#x27;, &#x27;gae&#x27;: None, &#x27;password&#x27;: &#x27;******&#x27;, &#x27;request_queue_size&#x27;: 5, &#x27;ssl_certificate&#x27;: &#x27;&#x27;, &#x27;cronjob&#x27;: False, &#x27;numthreads&#x27;: None, &#x27;quiet&#x27;: False, &#x27;import_models&#x27;: False, &#x27;timeout&#x27;: 10, &#x27;plain&#x27;: False, &#x27;nobanner&#x27;: False}&gt;</div></td></tr><tr><td style="font-weight:bold;vertical-align:top;">db_sessions</td><td style="vertical-align:top;">:</td><td><div>set([])</div></td></tr><tr><td style="font-weight:bold;vertical-align:top;">debugging</td><td style="vertical-align:top;">:</td><td><div>False</div></td></tr><tr><td style="font-weight:bold;vertical-align:top;">gluon_parent</td><td style="vertical-align:top;">:</td><td><div>/home/leonardo/Downloads/web2py</div></td></tr><tr><td style="font-weight:bold;vertical-align:top;">http_accept</td><td style="vertical-align:top;">:</td><td><div>text/html,application/xhtml+xml,application/xml;q=0.9,image/webp,image/apng,*/*;q=0.8</div></td></tr><tr><td style="font-weight:bold;vertical-align:top;">http_accept_encoding</td><td style="vertical-align:top;">:</td><td><div>gzip, deflate, br</div></td></tr><tr><td style="font-weight:bold;vertical-align:top;">http_accept_language</td><td style="vertical-align:top;">:</td><td><div>pt-BR,pt;q=0.9,en-US;q=0.8,en;q=0.7</div></td></tr><tr><td style="font-weight:bold;vertical-align:top;">http_cache_control</td><td style="vertical-align:top;">:</td><td><div>max-age=0</div></td></tr><tr><td style="font-weight:bold;vertical-align:top;">http_connection</td><td style="vertical-align:top;">:</td><td><div>keep-alive</div></td></tr><tr><td style="font-weight:bold;vertical-align:top;">http_cookie</td><td style="vertical-align:top;">:</td><td><div>session_id_admin=127.0.0.1-ce796df0-367a-45fc-b21e-84592f3091ae; session_id_kidsappmanager=127.0.0.1-733b7e1d-73a5-4403-93ad-d0e72f4ad5f7</div></td></tr><tr><td style="font-weight:bold;vertical-align:top;">http_host</td><td style="vertical-align:top;">:</td><td><div>127.0.0.1:8000</div></td></tr><tr><td style="font-weight:bold;vertical-align:top;">http_referer</td><td style="vertical-align:top;">:</td><td><div>http://127.0.0.1:8000/KidsAppManager/default/busca_aluno?nome_kids=Arthur&amp;lista_presenca=</div></td></tr><tr><td style="font-weight:bold;vertical-align:top;">http_upgrade_insecure_requests</td><td style="vertical-align:top;">:</td><td><div>1</div></td></tr><tr><td style="font-weight:bold;vertical-align:top;">http_user_agent</td><td style="vertical-align:top;">:</td><td><div>Mozilla/5.0 (X11; Linux x86_64) AppleWebKit/537.36 (KHTML, like Gecko) Chrome/67.0.3396.87 Safari/537.36</div></td></tr><tr><td style="font-weight:bold;vertical-align:top;">is_jython</td><td style="vertical-align:top;">:</td><td><div>False</div></td></tr><tr><td style="font-weight:bold;vertical-align:top;">is_py2</td><td style="vertical-align:top;">:</td><td><div>True</div></td></tr><tr><td style="font-weight:bold;vertical-align:top;">is_pypy</td><td style="vertical-align:top;">:</td><td><div>False</div></td></tr><tr><td style="font-weight:bold;vertical-align:top;">is_source</td><td style="vertical-align:top;">:</td><td><div>True</div></td></tr><tr><td style="font-weight:bold;vertical-align:top;">local_hosts</td><td style="vertical-align:top;">:</td><td><div><table><tr><td><div>127.0.1.1</div></td></tr><tr><td><div>::1</div></td></tr><tr><td><div>Unknow</div></td></tr><tr><td><div>::ffff:127.0.0.1</div></td></tr><tr><td><div>127.0.0.1</div></td></tr></table></div></td></tr><tr><td style="font-weight:bold;vertical-align:top;">path_info</td><td style="vertical-align:top;">:</td><td><div>/KidsAppManager/default/busca_aluno</div></td></tr><tr><td style="font-weight:bold;vertical-align:top;">query_string</td><td style="vertical-align:top;">:</td><td><div>c_nome=Arthur&amp;c_matricula=6&amp;c_email=leomanancial%40hotmail.com&amp;c_resp=Leo&amp;c_sala=Amarela&amp;c_cartao=</div></td></tr><tr><td style="font-weight:bold;vertical-align:top;">remote_addr</td><td style="vertical-align:top;">:</td><td><div>127.0.0.1</div></td></tr><tr><td style="font-weight:bold;vertical-align:top;">remote_port</td><td style="vertical-align:top;">:</td><td><div>56818</div></td></tr><tr><td style="font-weight:bold;vertical-align:top;">request_method</td><td style="vertical-align:top;">:</td><td><div>GET</div></td></tr><tr><td style="font-weight:bold;vertical-align:top;">request_uri</td><td style="vertical-align:top;">:</td><td><div>/KidsAppManager/default/busca_aluno?c_nome=Arthur&amp;c_matricula=6&amp;c_email=leomanancial%40hotmail.com&amp;c_resp=Leo&amp;c_sala=Amarela&amp;c_cartao=</div></td></tr><tr><td style="font-weight:bold;vertical-align:top;">script_name</td><td style="vertical-align:top;">:</td><td><div></div></td></tr><tr><td style="font-weight:bold;vertical-align:top;">server_name</td><td style="vertical-align:top;">:</td><td><div>Unknow</div></td></tr><tr><td style="font-weight:bold;vertical-align:top;">server_port</td><td style="vertical-align:top;">:</td><td><div>8000</div></td></tr><tr><td style="font-weight:bold;vertical-align:top;">server_protocol</td><td style="vertical-align:top;">:</td><td><div>HTTP/1.1</div></td></tr><tr><td style="font-weight:bold;vertical-align:top;">server_software</td><td style="vertical-align:top;">:</td><td><div>Rocket 1.2.6</div></td></tr><tr><td style="font-weight:bold;vertical-align:top;">web2py_path</td><td style="vertical-align:top;">:</td><td><div>/home/leonardo/Downloads/web2py</div></td></tr><tr><td style="font-weight:bold;vertical-align:top;">web2py_version</td><td style="vertical-align:top;">:</td><td><div>2.16.1-stable+timestamp.2017.11.14.05.54.25</div></td></tr><tr><td style="font-weight:bold;vertical-align:top;">wsgi.errors</td><td style="vertical-align:top;">:</td><td><div>&lt;open file &#x27;&lt;stderr&gt;&#x27;, mode &#x27;w&#x27; at 0x7f9275ef91e0&gt;</div></td></tr><tr><td style="font-weight:bold;vertical-align:top;">wsgi.file_wrapper</td><td style="vertical-align:top;">:</td><td><div>&lt;class wsgiref.util.FileWrapper at 0x7f92718d9258&gt;</div></td></tr><tr><td style="font-weight:bold;vertical-align:top;">wsgi.input</td><td style="vertical-align:top;">:</td><td><div>&lt;socket._fileobject object at 0x7f9271940950&gt;</div></td></tr><tr><td style="font-weight:bold;vertical-align:top;">wsgi.multiprocess</td><td style="vertical-align:top;">:</td><td><div>False</div></td></tr><tr><td style="font-weight:bold;vertical-align:top;">wsgi.multithread</td><td style="vertical-align:top;">:</td><td><div>True</div></td></tr><tr><td style="font-weight:bold;vertical-align:top;">wsgi.run_once</td><td style="vertical-align:top;">:</td><td><div>False</div></td></tr><tr><td style="font-weight:bold;vertical-align:top;">wsgi.url_scheme</td><td style="vertical-align:top;">:</td><td><div>http</div></td></tr><tr><td style="font-weight:bold;vertical-align:top;">wsgi.version</td><td style="vertical-align:top;">:</td><td><div><table><tr><td><div>1</div></td></tr><tr><td><div>0</div></td></tr></table></div></td></tr><tr><td style="font-weight:bold;vertical-align:top;">wsgi_errors</td><td style="vertical-align:top;">:</td><td><div>&lt;open file &#x27;&lt;stderr&gt;&#x27;, mode &#x27;w&#x27; at 0x7f9275ef91e0&gt;</div></td></tr><tr><td style="font-weight:bold;vertical-align:top;">wsgi_file_wrapper</td><td style="vertical-align:top;">:</td><td><div>&lt;class wsgiref.util.FileWrapper at 0x7f92718d9258&gt;</div></td></tr><tr><td style="font-weight:bold;vertical-align:top;">wsgi_input</td><td style="vertical-align:top;">:</td><td><div>&lt;socket._fileobject object at 0x7f9271940950&gt;</div></td></tr><tr><td style="font-weight:bold;vertical-align:top;">wsgi_multiprocess</td><td style="vertical-align:top;">:</td><td><div>False</div></td></tr><tr><td style="font-weight:bold;vertical-align:top;">wsgi_multithread</td><td style="vertical-align:top;">:</td><td><div>True</div></td></tr><tr><td style="font-weight:bold;vertical-align:top;">wsgi_run_once</td><td style="vertical-align:top;">:</td><td><div>False</div></td></tr><tr><td style="font-weight:bold;vertical-align:top;">wsgi_url_scheme</td><td style="vertical-align:top;">:</td><td><div>http</div></td></tr><tr><td style="font-weight:bold;vertical-align:top;">wsgi_version</td><td style="vertical-align:top;">:</td><td><div><table><tr><td><div>1</div></td></tr><tr><td><div>0</div></td></tr></table></div></td></tr></table></div></td></tr><tr><td style="font-weight:bold;vertical-align:top;">extension</td><td style="vertical-align:top;">:</td><td><div>html</div></td></tr><tr><td style="font-weight:bold;vertical-align:top;">folder</td><td style="vertical-align:top;">:</td><td><div>/home/leonardo/Downloads/web2py/applications/KidsAppManager/</div></td></tr><tr><td style="font-weight:bold;vertical-align:top;">function</td><td style="vertical-align:top;">:</td><td><div>busca_aluno</div></td></tr><tr><td style="font-weight:bold;vertical-align:top;">global_settings</td><td style="vertical-align:top;">:</td><td><div><table><tr><td style="font-weight:bold;vertical-align:top;">app_folders</td><td style="vertical-align:top;">:</td><td><div>set([&#x27;/home/leonardo/Downloads/web2py/applications/KidsAppManager/&#x27;, &#x27;/home/leonardo/Downloads/web2py/applications/admin/&#x27;])</div></td></tr><tr><td style="font-weight:bold;vertical-align:top;">applications_parent</td><td style="vertical-align:top;">:</td><td><div>/home/leonardo/Downloads/web2py</div></td></tr><tr><td style="font-weight:bold;vertical-align:top;">cmd_args</td><td style="vertical-align:top;">:</td><td><div><table></table></div></td></tr><tr><td style="font-weight:bold;vertical-align:top;">cmd_options</td><td style="vertical-align:top;">:</td><td><div>&lt;Values at 0x7f92718a38c0: {&#x27;verbose&#x27;: False, &#x27;ip&#x27;: &#x27;127.0.0.1&#x27;, &#x27;debuglevel&#x27;: 30, &#x27;with_scheduler&#x27;: False, &#x27;shutdown_timeout&#x27;: 5, &#x27;taskbar&#x27;: False, &#x27;with_coverage&#x27;: False, &#x27;pid_filename&#x27;: &#x27;httpserver.pid&#x27;, &#x27;maxthreads&#x27;: None, &#x27;softcron&#x27;: False, &#x27;server_name&#x27;: &#x27;Unknow&#x27;, &#x27;bpython&#x27;: False, &#x27;nogui&#x27;: False, &#x27;port&#x27;: 8000, &#x27;print_errors&#x27;: False, &#x27;extcron&#x27;: False, &#x27;runcron&#x27;: False, &#x27;run_system_tests&#x27;: False, &#x27;test&#x27;: None, &#x27;folder&#x27;: &#x27;/home/leonardo/Downloads/web2py&#x27;, &#x27;config&#x27;: &#x27;&#x27;, &#x27;minthreads&#x27;: None, &#x27;shell&#x27;: None, &#x27;run&#x27;: &#x27;&#x27;, &#x27;log_filename&#x27;: &#x27;httpserver.log&#x27;, &#x27;profiler_dir&#x27;: None, &#x27;args&#x27;: [&#x27;&#x27;], &#x27;socket_timeout&#x27;: 5, &#x27;ssl_ca_certificate&#x27;: None, &#x27;scheduler&#x27;: None, &#x27;interfaces&#x27;: None, &#x27;ssl_private_key&#x27;: &#x27;&#x27;, &#x27;gae&#x27;: None, &#x27;password&#x27;: &#x27;******&#x27;, &#x27;request_queue_size&#x27;: 5, &#x27;ssl_certificate&#x27;: &#x27;&#x27;, &#x27;cronjob&#x27;: False, &#x27;numthreads&#x27;: None, &#x27;quiet&#x27;: False, &#x27;import_models&#x27;: False, &#x27;timeout&#x27;: 10, &#x27;plain&#x27;: False, &#x27;nobanner&#x27;: False}&gt;</div></td></tr><tr><td style="font-weight:bold;vertical-align:top;">db_sessions</td><td style="vertical-align:top;">:</td><td><div>set([])</div></td></tr><tr><td style="font-weight:bold;vertical-align:top;">debugging</td><td style="vertical-align:top;">:</td><td><div>False</div></td></tr><tr><td style="font-weight:bold;vertical-align:top;">gluon_parent</td><td style="vertical-align:top;">:</td><td><div>/home/leonardo/Downloads/web2py</div></td></tr><tr><td style="font-weight:bold;vertical-align:top;">is_jython</td><td style="vertical-align:top;">:</td><td><div>False</div></td></tr><tr><td style="font-weight:bold;vertical-align:top;">is_py2</td><td style="vertical-align:top;">:</td><td><div>True</div></td></tr><tr><td style="font-weight:bold;vertical-align:top;">is_pypy</td><td style="vertical-align:top;">:</td><td><div>False</div></td></tr><tr><td style="font-weight:bold;vertical-align:top;">is_source</td><td style="vertical-align:top;">:</td><td><div>True</div></td></tr><tr><td style="font-weight:bold;vertical-align:top;">local_hosts</td><td style="vertical-align:top;">:</td><td><div><table><tr><td><div>127.0.1.1</div></td></tr><tr><td><div>::1</div></td></tr><tr><td><div>Unknow</div></td></tr><tr><td><div>::ffff:127.0.0.1</div></td></tr><tr><td><div>127.0.0.1</div></td></tr></table></div></td></tr><tr><td style="font-weight:bold;vertical-align:top;">web2py_version</td><td style="vertical-align:top;">:</td><td><div>2.16.1-stable+timestamp.2017.11.14.05.54.25</div></td></tr></table></div></td></tr><tr><td style="font-weight:bold;vertical-align:top;">is_https</td><td style="vertical-align:top;">:</td><td><div>False</div></td></tr><tr><td style="font-weight:bold;vertical-align:top;">is_local</td><td style="vertical-align:top;">:</td><td><div>True</div></td></tr><tr><td style="font-weight:bold;vertical-align:top;">is_restful</td><td style="vertical-align:top;">:</td><td><div>False</div></td></tr><tr><td style="font-weight:bold;vertical-align:top;">is_scheduler</td><td style="vertical-align:top;">:</td><td><div>False</div></td></tr><tr><td style="font-weight:bold;vertical-align:top;">is_shell</td><td style="vertical-align:top;">:</td><td><div>False</div></td></tr><tr><td style="font-weight:bold;vertical-align:top;">now</td><td style="vertical-align:top;">:</td><td><div>datetime.datetime(2018, 6, 21, 14, 38, 50, 222534)</div></td></tr><tr><td style="font-weight:bold;vertical-align:top;">raw_args</td><td style="vertical-align:top;">:</td><td><div></div></td></tr><tr><td style="font-weight:bold;vertical-align:top;">raw_extension</td><td style="vertical-align:top;">:</td><td><div>None</div></td></tr><tr><td style="font-weight:bold;vertical-align:top;">url</td><td style="vertical-align:top;">:</td><td><div>/KidsAppManager/default/busca_aluno</div></td></tr><tr><td style="font-weight:bold;vertical-align:top;">utcnow</td><td style="vertical-align:top;">:</td><td><div>datetime.datetime(2018, 6, 21, 17, 38, 50, 222554)</div></td></tr><tr><td style="font-weight:bold;vertical-align:top;">wsgi</td><td style="vertical-align:top;">:</td><td><div>&lt;gluon.main.LazyWSGI object at 0x7f92703707d0&gt;</div></td></tr></table></div>'
tRp64
sS'frames'
p65
(lp66
(dp67
S'file'
p68
S'/home/leonardo/Downloads/web2py/gluon/restricted.py'
p69
sS'dump'
p70
(dp71
S'environment'
p72
S"{'A': <class 'gluon.html.A'>, 'ANY_OF': <class 'gluon.validators.ANY_OF'>, 'ASSIGNJS': <function ASSIGNJS>, 'AppConfig': <function AppConfig>, 'Auth': <class 'gluon.tools.Auth'>, 'B': <class 'gluon.html.B'>, 'BEAUTIFY': <class 'gluon.html.BEAUTIFY'>, 'BODY': <class 'gluon.html.BODY'>, 'BR': <class 'gluon.html.BR'>, 'BUTTON': <class 'gluon.html.BUTTON'>, ...}"
p73
sS'ccode'
p74
S'<code object <module> at 0x7f9270396e30, file "/...pplications/KidsAppManager/models/db.py", line 7>'
p75
ssS'lnum'
p76
I219
sS'lines'
p77
(dp78
I214
S'    if environment is None:'
p79
sI215
S'        environment = {}'
p80
sI216
S"    environment['__file__'] = layer"
p81
sI217
S"    environment['__name__'] = '__restricted__'"
p82
sI218
S'    try:'
p83
sI219
S'        exec(ccode, environment)'
p84
sI220
S'    except HTTP:'
p85
sI221
S'        raise'
p86
sI222
S'    except RestrictedError:'
p87
sI223
S'        # do not encapsulate (obfuscate) the original RestrictedError'
p88
ssS'call'
p89
S'(ccode=<code object <module> at 0x7f9270396e30, file "/...pplications/KidsAppManager/models/db.py", line 7>, environment={\'A\': <class \'gluon.html.A\'>, \'ANY_OF\': <class \'gluon.validators.ANY_OF\'>, \'ASSIGNJS\': <function ASSIGNJS>, \'AppConfig\': <function AppConfig>, \'Auth\': <class \'gluon.tools.Auth\'>, \'B\': <class \'gluon.html.B\'>, \'BEAUTIFY\': <class \'gluon.html.BEAUTIFY\'>, \'BODY\': <class \'gluon.html.BODY\'>, \'BR\': <class \'gluon.html.BR\'>, \'BUTTON\': <class \'gluon.html.BUTTON\'>, ...}, layer=\'/home/leonardo/Downloads/web2py/applications/KidsAppManager/models/db.py\', scode=<code object <module> at 0x7f9270396e30, file "/...pplications/KidsAppManager/models/db.py", line 7>)'
p90
sS'func'
p91
S'restricted'
p92
sa(dp93
g68
S'/home/leonardo/Downloads/web2py/applications/KidsAppManager/models/db.py'
p94
sg70
(dp95
S'Field'
p96
S"<class 'pydal.objects.Field'>"
p97
sS'label'
p98
S'undefined'
p99
ssg76
I195
sg77
(dp100
I192
S"    Field('cartao',requires=IS_NOT_EMPTY(),label='Cart\xc3\xa3o de entrada'),"
p101
sI193
S"    Field('matricula_sala',db.cadastro,IS_IN_DB(db,'cadastro.sala_matriculado','%(nome_sala)s'),label=T('Sala Matriculado')),"
p102
sI194
S"    Field('presenca','boolean',label=T('Presente?')),"
p103
sI195
S"    Field('cod_presenca', label=('C\xc3\xb3digo da Presen\xc3\xa7a'))"
p104
sI196
S')'
sI197
S''
sI188
S'db.define_table('
p105
sI189
S"    'frequencia',"
p106
sI190
S"    Field('nome','float',db.cadastro, requires=IS_IN_DB(db,'cadastro.nome_crianca','%(nome_crianca)s'),label='Nome'),"
p107
sI191
S"    Field('data_entrada','datetime'),"
p108
ssg89
S'()'
p109
sg91
S'<module>'
p110
sa(dp111
g68
S'/home/leonardo/Downloads/web2py/gluon/packages/dal/pydal/base.py'
p112
sg70
(dp113
S'fields'
p114
S'(<pydal.objects.Field object>, <pydal.objects.Field object>, <pydal.objects.Field object>, <pydal.objects.Field object>, <pydal.objects.Field object>, <pydal.objects.Field object>)'
p115
sS'self'
p116
S'<DAL uri="mysql:******@localhost/kids2">'
p117
sS'args'
p118
g21
sS'tablename'
p119
S"'frequencia'"
p120
sS'table'
p121
g99
sS'self.lazy_define_table'
p122
S'<bound method DAL.lazy_define_table of <DAL uri="mysql:******@localhost/kids2">>'
p123
ssg76
I586
sg77
(dp124
I581
S'                                  (tablename, invalid_args))'
p125
sI582
S'        if self._lazy_tables and tablename not in self._LAZY_TABLES:'
p126
sI583
S'            self._LAZY_TABLES[tablename] = (tablename, fields, args)'
p127
sI584
S'            table = None'
p128
sI585
S'        else:'
p129
sI586
S'            table = self.lazy_define_table(tablename, *fields, **args)'
p130
sI587
S'        if tablename not in self.tables:'
p131
sI588
S'            self.tables.append(tablename)'
p132
sI589
S'        return table'
p133
sI590
S''
ssg89
S'(self=<DAL uri="mysql:******@localhost/kids2">, tablename=\'frequencia\', *fields=(<pydal.objects.Field object>, <pydal.objects.Field object>, <pydal.objects.Field object>, <pydal.objects.Field object>, <pydal.objects.Field object>, <pydal.objects.Field object>), **args={})'
p134
sg91
S'define_table'
p135
sa(dp136
g68
S'/home/leonardo/Downloads/web2py/gluon/packages/dal/pydal/base.py'
p137
sg70
(dp138
S'polymodel'
p139
S'None'
p140
ssg76
I620
sg77
(dp141
I615
S'            try:'
p142
sI616
S'                GLOBAL_LOCKER.acquire()'
p143
sI617
S'                self._adapter.create_table('
p144
sI618
S'                    table, migrate=migrate,'
p145
sI619
S'                    fake_migrate=fake_migrate,'
p146
sI620
S'                    polymodel=polymodel)'
p147
sI621
S'            finally:'
p148
sI622
S'                GLOBAL_LOCKER.release()'
p149
sI623
S'        else:'
p150
sI624
S'            table._dbt = None'
p151
ssg89
S'(self=<DAL uri="mysql:******@localhost/kids2">, tablename=\'frequencia\', *fields=(<pydal.objects.Field object>, <pydal.objects.Field object>, <pydal.objects.Field object>, <pydal.objects.Field object>, <pydal.objects.Field object>, <pydal.objects.Field object>), **args={})'
p152
sg91
S'lazy_define_table'
p153
sa(dp154
g68
S'/home/leonardo/Downloads/web2py/gluon/packages/dal/pydal/adapters/base.py'
p155
sg70
(dp156
S'self'
p157
S'<pydal.adapters.mysql.MySQL object>'
p158
sS'args'
p159
S'(<Table frequencia (id, nome, data_entrada, cartao, matricula_sala, presenca, cod_presenca)>,)'
p160
sS'self.migrator'
p161
S'<pydal.migrator.Migrator object>'
p162
sS'self.migrator.create_table'
p163
S'<bound method Migrator.create_table of <pydal.migrator.Migrator object>>'
p164
sS'kwargs'
p165
S"{'fake_migrate': False, 'migrate': True, 'polymodel': None}"
p166
ssg76
I797
sg77
(dp167
I800
S'        super(SQLAdapter, self)._drop_table_cleanup(table)'
p168
sI801
S'        if table._dbt:'
p169
sI792
S''
sI793
S'    def bulk_insert(self, table, items):'
p170
sI794
S'        return [self.insert(table, item) for item in items]'
p171
sI795
S''
sI796
S'    def create_table(self, *args, **kwargs):'
p172
sI797
S'        return self.migrator.create_table(*args, **kwargs)'
p173
sI798
S''
sI799
S'    def _drop_table_cleanup(self, table):'
p174
ssg89
S"(self=<pydal.adapters.mysql.MySQL object>, *args=(<Table frequencia (id, nome, data_entrada, cartao, matricula_sala, presenca, cod_presenca)>,), **kwargs={'fake_migrate': False, 'migrate': True, 'polymodel': None})"
p175
sg91
S'create_table'
p176
sa(dp177
g68
S'/home/leonardo/Downloads/web2py/gluon/packages/dal/pydal/migrator.py'
p178
sg70
(dp179
S'fake_migrate'
p180
S'False'
p181
ssg76
I314
sg77
(dp182
I309
S'            if sql_fields != sql_fields_old:'
p183
sI310
S'                self.migrate_table('
p184
sI311
S'                    table,'
p185
sI312
S'                    sql_fields, sql_fields_old,'
p186
sI313
S'                    sql_fields_aux, None,'
p187
sI314
S'                    fake_migrate=fake_migrate'
p188
sI315
S'                    )'
p189
sI316
S'        return query'
p190
sI317
S''
sI318
S'    def _fix(self, item):'
p191
ssg89
S'(self=<pydal.migrator.Migrator object>, table=<Table frequencia (id, nome, data_entrada, cartao, matricula_sala, presenca, cod_presenca)>, migrate=True, fake_migrate=False, polymodel=None)'
p192
sg91
g176
sa(dp193
g68
S'/home/leonardo/Downloads/web2py/gluon/packages/dal/pydal/migrator.py'
p194
sg70
(dp195
S'self.save_dbt'
p196
S'<bound method Migrator.save_dbt of <pydal.migrator.Migrator object>>'
p197
sS'self'
p198
S'<pydal.migrator.Migrator object>'
p199
sS'sql_fields_current'
p200
S"{'cartao': {'length': 512, 'notnull': False, 'raw_rname': 'cartao', 'rname': '`cartao`', 'sortable': 4, 'sql': 'VARCHAR(512)', 'type': 'string', 'unique': False}, 'cod_presenca': {'length': 512, 'notnull': False, 'raw_rname': 'cod_presenca', 'rname': '`cod_presenca`', 'sortable': 7, 'sql': 'VARCHAR(512)', 'type': 'string', 'unique': False}, 'data_entrada': {'length': 512, 'notnull': False, 'raw_rname': 'data_entrada', 'rname': '`data_entrada`', 'sortable': 3, 'sql': 'DATETIME', 'type': 'datetime', 'unique': False}, 'id': {'length': 512, 'notnull': False, 'raw_rname': 'id', 'rname': '`id`', 'sortable': 1, 'sql': 'INT AUTO_INCREMENT NOT NULL', 'type': 'id', 'unique': False}, 'matricula_sala': {'length': <gluon.validators.IS_IN_DB object>, 'notnull': False, 'raw_rname': 'matricula_sala', 'rname': '`matricula_sala`', 'sortable': 5, 'sql': 'INT  , INDEX `matricula_sala__idx` (`matricula_s...`) REFERENCES `cadastro` (`id`) ON DELETE CASCADE', 'type': 'reference cadastro', 'unique': False}, 'nome': {'length': <Table cadastro (id, nome_crianca, data_nascimen...i, nome_resp, email, telefone, sala_matriculado)>, 'notnull': False, 'raw_rname': 'nome', 'rname': '`nome`', 'sortable': 2, 'sql': 'FLOAT', 'type': 'float', 'unique': False}, 'presenca': {'length': 512, 'notnull': False, 'raw_rname': 'presenca', 'rname': '`presenca`', 'sortable': 6, 'sql': 'CHAR(1)', 'type': 'boolean', 'unique': False}}"
p201
sS'table'
p202
S'<Table frequencia (id, nome, data_entrada, cartao, matricula_sala, presenca, cod_presenca)>'
p203
ssg76
I455
sg77
(dp204
I450
S'                        # in one transaction so we must commit'
p205
sI451
S'                        # partial transactions and'
p206
sI452
S'                        # update table._dbt after alter table.'
p207
sI453
S'                        if db._adapter.commit_on_alter_table:'
p208
sI454
S'                            db.commit()'
p209
sI455
S'                            self.save_dbt(table, sql_fields_current)'
p210
sI456
S"                            self.log('success!\\n', table)"
p211
sI457
S''
sI458
S'            elif metadata_change:'
p212
sI459
S'                self.save_dbt(table, sql_fields_current)'
p213
ssg89
S"(self=<pydal.migrator.Migrator object>, table=<Table frequencia (id, nome, data_entrada, cartao, matricula_sala, presenca, cod_presenca)>, sql_fields={'cartao': {'length': 512, 'notnull': False, 'raw_rname': 'cartao', 'rname': '`cartao`', 'sortable': 4, 'sql': 'VARCHAR(512)', 'type': 'string', 'unique': False}, 'cod_presenca': {'length': 512, 'notnull': False, 'raw_rname': 'cod_presenca', 'rname': '`cod_presenca`', 'sortable': 7, 'sql': 'VARCHAR(512)', 'type': 'string', 'unique': False}, 'data_entrada': {'length': 512, 'notnull': False, 'raw_rname': 'data_entrada', 'rname': '`data_entrada`', 'sortable': 3, 'sql': 'DATETIME', 'type': 'datetime', 'unique': False}, 'id': {'length': 512, 'notnull': False, 'raw_rname': 'id', 'rname': '`id`', 'sortable': 1, 'sql': 'INT AUTO_INCREMENT NOT NULL', 'type': 'id', 'unique': False}, 'matricula_sala': {'length': <gluon.validators.IS_IN_DB object>, 'notnull': False, 'raw_rname': 'matricula_sala', 'rname': '`matricula_sala`', 'sortable': 5, 'sql': 'INT  , INDEX `matricula_sala__idx` (`matricula_s...`) REFERENCES `cadastro` (`id`) ON DELETE CASCADE', 'type': 'reference cadastro', 'unique': False}, 'nome': {'length': <Table cadastro (id, nome_crianca, data_nascimen...i, nome_resp, email, telefone, sala_matriculado)>, 'notnull': False, 'raw_rname': 'nome', 'rname': '`nome`', 'sortable': 2, 'sql': 'FLOAT', 'type': 'float', 'unique': False}, 'presenca': {'length': 512, 'notnull': False, 'raw_rname': 'presenca', 'rname': '`presenca`', 'sortable': 6, 'sql': 'CHAR(1)', 'type': 'boolean', 'unique': False}}, sql_fields_old={'cartao': {'length': 512, 'notnull': False, 'raw_rname': 'cartao', 'rname': '`cartao`', 'sortable': 4, 'sql': 'VARCHAR(512)', 'type': 'string', 'unique': False}, 'cod_presenca': {'length': 512, 'notnull': False, 'raw_rname': 'cod_presenca', 'rname': '`cod_presenca`', 'sortable': 7, 'sql': 'VARCHAR(512)', 'type': 'string', 'unique': False}, 'data_entrada': {'length': 512, 'notnull': False, 'raw_rname': 'data_entrada', 'rname': '`data_entrada`', 'sortable': 3, 'sql': 'DATETIME', 'type': 'datetime', 'unique': False}, 'id': {'length': 512, 'notnull': False, 'raw_rname': 'id', 'rname': '`id`', 'sortable': 1, 'sql': 'INT AUTO_INCREMENT NOT NULL', 'type': 'id', 'unique': False}, 'matricula_sala': {'length': <gluon.validators.IS_IN_DB object>, 'notnull': False, 'raw_rname': 'matricula_sala', 'rname': '`matricula_sala`', 'sortable': 5, 'sql': 'INT  , INDEX `matricula_sala__idx` (`matricula_s...`) REFERENCES `cadastro` (`id`) ON DELETE CASCADE', 'type': 'reference cadastro', 'unique': False}, 'nome': {'length': 512, 'notnull': False, 'raw_rname': 'nome', 'rname': '`nome`', 'sortable': 2, 'sql': 'INT  , INDEX `nome__idx` (`nome`), FOREIGN KEY (...`) REFERENCES `cadastro` (`id`) ON DELETE CASCADE', 'type': 'reference cadastro', 'unique': False}, 'presenca': {'length': 512, 'notnull': False, 'raw_rname': 'presenca', 'rname': '`presenca`', 'sortable': 6, 'sql': 'CHAR(1)', 'type': 'boolean', 'unique': False}}, sql_fields_aux={'cartao': {'sql': 'VARCHAR(512)'}, 'cod_presenca': {'sql': 'VARCHAR(512)'}, 'data_entrada': {'sql': 'DATETIME'}, 'id': {'sql': 'INT AUTO_INCREMENT NOT NULL'}, 'matricula_sala': {'sql': 'INT  , INDEX `matricula_sala__idx` (`matricula_s...`) REFERENCES `cadastro` (`id`) ON DELETE CASCADE'}, 'nome': {'sql': 'FLOAT'}, 'presenca': {'sql': 'CHAR(1)'}}, logfile=None, fake_migrate=False)"
p214
sg91
S'migrate_table'
p215
sa(dp216
g68
S'/home/leonardo/Downloads/web2py/gluon/packages/dal/pydal/migrator.py'
p217
sg70
(dp218
S'pickle.dump'
p219
S'<function dump>'
p220
sS'tfile'
p221
S'<pydal.contrib.portalocker.LockedFile object>'
p222
sS'sql_fields_current'
p223
S"{'cartao': {'length': 512, 'notnull': False, 'raw_rname': 'cartao', 'rname': '`cartao`', 'sortable': 4, 'sql': 'VARCHAR(512)', 'type': 'string', 'unique': False}, 'cod_presenca': {'length': 512, 'notnull': False, 'raw_rname': 'cod_presenca', 'rname': '`cod_presenca`', 'sortable': 7, 'sql': 'VARCHAR(512)', 'type': 'string', 'unique': False}, 'data_entrada': {'length': 512, 'notnull': False, 'raw_rname': 'data_entrada', 'rname': '`data_entrada`', 'sortable': 3, 'sql': 'DATETIME', 'type': 'datetime', 'unique': False}, 'id': {'length': 512, 'notnull': False, 'raw_rname': 'id', 'rname': '`id`', 'sortable': 1, 'sql': 'INT AUTO_INCREMENT NOT NULL', 'type': 'id', 'unique': False}, 'matricula_sala': {'length': <gluon.validators.IS_IN_DB object>, 'notnull': False, 'raw_rname': 'matricula_sala', 'rname': '`matricula_sala`', 'sortable': 5, 'sql': 'INT  , INDEX `matricula_sala__idx` (`matricula_s...`) REFERENCES `cadastro` (`id`) ON DELETE CASCADE', 'type': 'reference cadastro', 'unique': False}, 'nome': {'length': <Table cadastro (id, nome_crianca, data_nascimen...i, nome_resp, email, telefone, sala_matriculado)>, 'notnull': False, 'raw_rname': 'nome', 'rname': '`nome`', 'sortable': 2, 'sql': 'FLOAT', 'type': 'float', 'unique': False}, 'presenca': {'length': 512, 'notnull': False, 'raw_rname': 'presenca', 'rname': '`presenca`', 'sortable': 6, 'sql': 'CHAR(1)', 'type': 'boolean', 'unique': False}}"
p224
sS'global pickle'
p225
S"<module 'pickle' from '/usr/lib/python2.7/pickle.pyc'>"
p226
ssg76
I469
sg77
(dp227
I464
S'            self.save_dbt(table, sql_fields_current)'
p228
sI465
S"            self.log('success!\\n', table)"
p229
sI466
S''
sI467
S'    def save_dbt(self, table, sql_fields_current):'
p230
sI468
S"        tfile = self.file_open(table._dbt, 'wb')"
p231
sI469
S'        pickle.dump(sql_fields_current, tfile)'
p232
sI470
S'        self.file_close(tfile)'
p233
sI471
S''
sI472
S'    def log(self, message, table=None):'
p234
sI473
S'        isabs = None'
p235
ssg89
S"(self=<pydal.migrator.Migrator object>, table=<Table frequencia (id, nome, data_entrada, cartao, matricula_sala, presenca, cod_presenca)>, sql_fields_current={'cartao': {'length': 512, 'notnull': False, 'raw_rname': 'cartao', 'rname': '`cartao`', 'sortable': 4, 'sql': 'VARCHAR(512)', 'type': 'string', 'unique': False}, 'cod_presenca': {'length': 512, 'notnull': False, 'raw_rname': 'cod_presenca', 'rname': '`cod_presenca`', 'sortable': 7, 'sql': 'VARCHAR(512)', 'type': 'string', 'unique': False}, 'data_entrada': {'length': 512, 'notnull': False, 'raw_rname': 'data_entrada', 'rname': '`data_entrada`', 'sortable': 3, 'sql': 'DATETIME', 'type': 'datetime', 'unique': False}, 'id': {'length': 512, 'notnull': False, 'raw_rname': 'id', 'rname': '`id`', 'sortable': 1, 'sql': 'INT AUTO_INCREMENT NOT NULL', 'type': 'id', 'unique': False}, 'matricula_sala': {'length': <gluon.validators.IS_IN_DB object>, 'notnull': False, 'raw_rname': 'matricula_sala', 'rname': '`matricula_sala`', 'sortable': 5, 'sql': 'INT  , INDEX `matricula_sala__idx` (`matricula_s...`) REFERENCES `cadastro` (`id`) ON DELETE CASCADE', 'type': 'reference cadastro', 'unique': False}, 'nome': {'length': <Table cadastro (id, nome_crianca, data_nascimen...i, nome_resp, email, telefone, sala_matriculado)>, 'notnull': False, 'raw_rname': 'nome', 'rname': '`nome`', 'sortable': 2, 'sql': 'FLOAT', 'type': 'float', 'unique': False}, 'presenca': {'length': 512, 'notnull': False, 'raw_rname': 'presenca', 'rname': '`presenca`', 'sortable': 6, 'sql': 'CHAR(1)', 'type': 'boolean', 'unique': False}})"
p236
sg91
S'save_dbt'
p237
sa(dp238
g68
S'/usr/lib/python2.7/pickle.py'
p239
sg70
(dp240
S'obj'
p241
S"{'cartao': {'length': 512, 'notnull': False, 'raw_rname': 'cartao', 'rname': '`cartao`', 'sortable': 4, 'sql': 'VARCHAR(512)', 'type': 'string', 'unique': False}, 'cod_presenca': {'length': 512, 'notnull': False, 'raw_rname': 'cod_presenca', 'rname': '`cod_presenca`', 'sortable': 7, 'sql': 'VARCHAR(512)', 'type': 'string', 'unique': False}, 'data_entrada': {'length': 512, 'notnull': False, 'raw_rname': 'data_entrada', 'rname': '`data_entrada`', 'sortable': 3, 'sql': 'DATETIME', 'type': 'datetime', 'unique': False}, 'id': {'length': 512, 'notnull': False, 'raw_rname': 'id', 'rname': '`id`', 'sortable': 1, 'sql': 'INT AUTO_INCREMENT NOT NULL', 'type': 'id', 'unique': False}, 'matricula_sala': {'length': <gluon.validators.IS_IN_DB object>, 'notnull': False, 'raw_rname': 'matricula_sala', 'rname': '`matricula_sala`', 'sortable': 5, 'sql': 'INT  , INDEX `matricula_sala__idx` (`matricula_s...`) REFERENCES `cadastro` (`id`) ON DELETE CASCADE', 'type': 'reference cadastro', 'unique': False}, 'nome': {'length': <Table cadastro (id, nome_crianca, data_nascimen...i, nome_resp, email, telefone, sala_matriculado)>, 'notnull': False, 'raw_rname': 'nome', 'rname': '`nome`', 'sortable': 2, 'sql': 'FLOAT', 'type': 'float', 'unique': False}, 'presenca': {'length': 512, 'notnull': False, 'raw_rname': 'presenca', 'rname': '`presenca`', 'sortable': 6, 'sql': 'CHAR(1)', 'type': 'boolean', 'unique': False}}"
p242
sS'protocol'
p243
S'None'
p244
sS').dump'
p245
g99
sS'file'
p246
S'<pydal.contrib.portalocker.LockedFile object>'
p247
sS'global Pickler'
p248
S'<class pickle.Pickler>'
p249
ssg76
I1376
sg77
(dp250
I1376
S'    Pickler(file, protocol).dump(obj)'
p251
sI1377
S''
sI1378
S'def dumps(obj, protocol=None):'
p252
sI1379
S'    file = StringIO()'
p253
sI1380
S'    Pickler(file, protocol).dump(obj)'
p254
sI1371
S'    from cStringIO import StringIO'
p255
sI1372
S'except ImportError:'
p256
sI1373
S'    from StringIO import StringIO'
p257
sI1374
S''
sI1375
S'def dump(obj, file, protocol=None):'
p258
ssg89
S"(obj={'cartao': {'length': 512, 'notnull': False, 'raw_rname': 'cartao', 'rname': '`cartao`', 'sortable': 4, 'sql': 'VARCHAR(512)', 'type': 'string', 'unique': False}, 'cod_presenca': {'length': 512, 'notnull': False, 'raw_rname': 'cod_presenca', 'rname': '`cod_presenca`', 'sortable': 7, 'sql': 'VARCHAR(512)', 'type': 'string', 'unique': False}, 'data_entrada': {'length': 512, 'notnull': False, 'raw_rname': 'data_entrada', 'rname': '`data_entrada`', 'sortable': 3, 'sql': 'DATETIME', 'type': 'datetime', 'unique': False}, 'id': {'length': 512, 'notnull': False, 'raw_rname': 'id', 'rname': '`id`', 'sortable': 1, 'sql': 'INT AUTO_INCREMENT NOT NULL', 'type': 'id', 'unique': False}, 'matricula_sala': {'length': <gluon.validators.IS_IN_DB object>, 'notnull': False, 'raw_rname': 'matricula_sala', 'rname': '`matricula_sala`', 'sortable': 5, 'sql': 'INT  , INDEX `matricula_sala__idx` (`matricula_s...`) REFERENCES `cadastro` (`id`) ON DELETE CASCADE', 'type': 'reference cadastro', 'unique': False}, 'nome': {'length': <Table cadastro (id, nome_crianca, data_nascimen...i, nome_resp, email, telefone, sala_matriculado)>, 'notnull': False, 'raw_rname': 'nome', 'rname': '`nome`', 'sortable': 2, 'sql': 'FLOAT', 'type': 'float', 'unique': False}, 'presenca': {'length': 512, 'notnull': False, 'raw_rname': 'presenca', 'rname': '`presenca`', 'sortable': 6, 'sql': 'CHAR(1)', 'type': 'boolean', 'unique': False}}, file=<pydal.contrib.portalocker.LockedFile object>, protocol=None)"
p259
sg91
g70
sa(dp260
g68
S'/usr/lib/python2.7/pickle.py'
p261
sg70
(dp262
S'self'
p263
S'<pickle.Pickler instance>'
p264
sS'obj'
p265
S"{'cartao': {'length': 512, 'notnull': False, 'raw_rname': 'cartao', 'rname': '`cartao`', 'sortable': 4, 'sql': 'VARCHAR(512)', 'type': 'string', 'unique': False}, 'cod_presenca': {'length': 512, 'notnull': False, 'raw_rname': 'cod_presenca', 'rname': '`cod_presenca`', 'sortable': 7, 'sql': 'VARCHAR(512)', 'type': 'string', 'unique': False}, 'data_entrada': {'length': 512, 'notnull': False, 'raw_rname': 'data_entrada', 'rname': '`data_entrada`', 'sortable': 3, 'sql': 'DATETIME', 'type': 'datetime', 'unique': False}, 'id': {'length': 512, 'notnull': False, 'raw_rname': 'id', 'rname': '`id`', 'sortable': 1, 'sql': 'INT AUTO_INCREMENT NOT NULL', 'type': 'id', 'unique': False}, 'matricula_sala': {'length': <gluon.validators.IS_IN_DB object>, 'notnull': False, 'raw_rname': 'matricula_sala', 'rname': '`matricula_sala`', 'sortable': 5, 'sql': 'INT  , INDEX `matricula_sala__idx` (`matricula_s...`) REFERENCES `cadastro` (`id`) ON DELETE CASCADE', 'type': 'reference cadastro', 'unique': False}, 'nome': {'length': <Table cadastro (id, nome_crianca, data_nascimen...i, nome_resp, email, telefone, sala_matriculado)>, 'notnull': False, 'raw_rname': 'nome', 'rname': '`nome`', 'sortable': 2, 'sql': 'FLOAT', 'type': 'float', 'unique': False}, 'presenca': {'length': 512, 'notnull': False, 'raw_rname': 'presenca', 'rname': '`presenca`', 'sortable': 6, 'sql': 'CHAR(1)', 'type': 'boolean', 'unique': False}}"
p266
sS'self.save'
p267
S'<bound method Pickler.save of <pickle.Pickler instance>>'
p268
ssg76
I224
sg77
(dp269
I224
S'        self.save(obj)'
p270
sI225
S'        self.write(STOP)'
p271
sI226
S''
sI227
S'    def memoize(self, obj):'
p272
sI228
S'        """Store an object in the memo."""'
p273
sI219
S''
sI220
S'    def dump(self, obj):'
p274
sI221
S'        """Write a pickled representation of obj to the open file."""'
p275
sI222
S'        if self.proto >= 2:'
p276
sI223
S'            self.write(PROTO + chr(self.proto))'
p277
ssg89
S"(self=<pickle.Pickler instance>, obj={'cartao': {'length': 512, 'notnull': False, 'raw_rname': 'cartao', 'rname': '`cartao`', 'sortable': 4, 'sql': 'VARCHAR(512)', 'type': 'string', 'unique': False}, 'cod_presenca': {'length': 512, 'notnull': False, 'raw_rname': 'cod_presenca', 'rname': '`cod_presenca`', 'sortable': 7, 'sql': 'VARCHAR(512)', 'type': 'string', 'unique': False}, 'data_entrada': {'length': 512, 'notnull': False, 'raw_rname': 'data_entrada', 'rname': '`data_entrada`', 'sortable': 3, 'sql': 'DATETIME', 'type': 'datetime', 'unique': False}, 'id': {'length': 512, 'notnull': False, 'raw_rname': 'id', 'rname': '`id`', 'sortable': 1, 'sql': 'INT AUTO_INCREMENT NOT NULL', 'type': 'id', 'unique': False}, 'matricula_sala': {'length': <gluon.validators.IS_IN_DB object>, 'notnull': False, 'raw_rname': 'matricula_sala', 'rname': '`matricula_sala`', 'sortable': 5, 'sql': 'INT  , INDEX `matricula_sala__idx` (`matricula_s...`) REFERENCES `cadastro` (`id`) ON DELETE CASCADE', 'type': 'reference cadastro', 'unique': False}, 'nome': {'length': <Table cadastro (id, nome_crianca, data_nascimen...i, nome_resp, email, telefone, sala_matriculado)>, 'notnull': False, 'raw_rname': 'nome', 'rname': '`nome`', 'sortable': 2, 'sql': 'FLOAT', 'type': 'float', 'unique': False}, 'presenca': {'length': 512, 'notnull': False, 'raw_rname': 'presenca', 'rname': '`presenca`', 'sortable': 6, 'sql': 'CHAR(1)', 'type': 'boolean', 'unique': False}})"
p278
sg91
g70
sa(dp279
g68
S'/usr/lib/python2.7/pickle.py'
p280
sg70
(dp281
S'self'
p282
S'<pickle.Pickler instance>'
p283
sS'obj'
p284
S"{'cartao': {'length': 512, 'notnull': False, 'raw_rname': 'cartao', 'rname': '`cartao`', 'sortable': 4, 'sql': 'VARCHAR(512)', 'type': 'string', 'unique': False}, 'cod_presenca': {'length': 512, 'notnull': False, 'raw_rname': 'cod_presenca', 'rname': '`cod_presenca`', 'sortable': 7, 'sql': 'VARCHAR(512)', 'type': 'string', 'unique': False}, 'data_entrada': {'length': 512, 'notnull': False, 'raw_rname': 'data_entrada', 'rname': '`data_entrada`', 'sortable': 3, 'sql': 'DATETIME', 'type': 'datetime', 'unique': False}, 'id': {'length': 512, 'notnull': False, 'raw_rname': 'id', 'rname': '`id`', 'sortable': 1, 'sql': 'INT AUTO_INCREMENT NOT NULL', 'type': 'id', 'unique': False}, 'matricula_sala': {'length': <gluon.validators.IS_IN_DB object>, 'notnull': False, 'raw_rname': 'matricula_sala', 'rname': '`matricula_sala`', 'sortable': 5, 'sql': 'INT  , INDEX `matricula_sala__idx` (`matricula_s...`) REFERENCES `cadastro` (`id`) ON DELETE CASCADE', 'type': 'reference cadastro', 'unique': False}, 'nome': {'length': <Table cadastro (id, nome_crianca, data_nascimen...i, nome_resp, email, telefone, sala_matriculado)>, 'notnull': False, 'raw_rname': 'nome', 'rname': '`nome`', 'sortable': 2, 'sql': 'FLOAT', 'type': 'float', 'unique': False}, 'presenca': {'length': 512, 'notnull': False, 'raw_rname': 'presenca', 'rname': '`presenca`', 'sortable': 6, 'sql': 'CHAR(1)', 'type': 'boolean', 'unique': False}}"
p285
sS'f'
S'<function save_dict>'
p286
ssg76
I286
sg77
(dp287
I288
S''
sI289
S'        # Check copy_reg.dispatch_table'
p288
sI290
S'        reduce = dispatch_table.get(t)'
p289
sI281
S''
sI282
S'        # Check the type dispatch table'
p290
sI283
S'        t = type(obj)'
p291
sI284
S'        f = self.dispatch.get(t)'
p292
sI285
S'        if f:'
p293
sI286
S'            f(self, obj) # Call unbound method with explicit self'
p294
sI287
S'            return'
p295
ssg89
S"(self=<pickle.Pickler instance>, obj={'cartao': {'length': 512, 'notnull': False, 'raw_rname': 'cartao', 'rname': '`cartao`', 'sortable': 4, 'sql': 'VARCHAR(512)', 'type': 'string', 'unique': False}, 'cod_presenca': {'length': 512, 'notnull': False, 'raw_rname': 'cod_presenca', 'rname': '`cod_presenca`', 'sortable': 7, 'sql': 'VARCHAR(512)', 'type': 'string', 'unique': False}, 'data_entrada': {'length': 512, 'notnull': False, 'raw_rname': 'data_entrada', 'rname': '`data_entrada`', 'sortable': 3, 'sql': 'DATETIME', 'type': 'datetime', 'unique': False}, 'id': {'length': 512, 'notnull': False, 'raw_rname': 'id', 'rname': '`id`', 'sortable': 1, 'sql': 'INT AUTO_INCREMENT NOT NULL', 'type': 'id', 'unique': False}, 'matricula_sala': {'length': <gluon.validators.IS_IN_DB object>, 'notnull': False, 'raw_rname': 'matricula_sala', 'rname': '`matricula_sala`', 'sortable': 5, 'sql': 'INT  , INDEX `matricula_sala__idx` (`matricula_s...`) REFERENCES `cadastro` (`id`) ON DELETE CASCADE', 'type': 'reference cadastro', 'unique': False}, 'nome': {'length': <Table cadastro (id, nome_crianca, data_nascimen...i, nome_resp, email, telefone, sala_matriculado)>, 'notnull': False, 'raw_rname': 'nome', 'rname': '`nome`', 'sortable': 2, 'sql': 'FLOAT', 'type': 'float', 'unique': False}, 'presenca': {'length': 512, 'notnull': False, 'raw_rname': 'presenca', 'rname': '`presenca`', 'sortable': 6, 'sql': 'CHAR(1)', 'type': 'boolean', 'unique': False}})"
p296
sg91
S'save'
p297
sa(dp298
g68
S'/usr/lib/python2.7/pickle.py'
p299
sg70
(dp300
S'self._batch_setitems'
p301
S'<bound method Pickler._batch_setitems of <pickle.Pickler instance>>'
p302
sS'self'
p303
S'<pickle.Pickler instance>'
p304
sS'obj'
p305
S"{'cartao': {'length': 512, 'notnull': False, 'raw_rname': 'cartao', 'rname': '`cartao`', 'sortable': 4, 'sql': 'VARCHAR(512)', 'type': 'string', 'unique': False}, 'cod_presenca': {'length': 512, 'notnull': False, 'raw_rname': 'cod_presenca', 'rname': '`cod_presenca`', 'sortable': 7, 'sql': 'VARCHAR(512)', 'type': 'string', 'unique': False}, 'data_entrada': {'length': 512, 'notnull': False, 'raw_rname': 'data_entrada', 'rname': '`data_entrada`', 'sortable': 3, 'sql': 'DATETIME', 'type': 'datetime', 'unique': False}, 'id': {'length': 512, 'notnull': False, 'raw_rname': 'id', 'rname': '`id`', 'sortable': 1, 'sql': 'INT AUTO_INCREMENT NOT NULL', 'type': 'id', 'unique': False}, 'matricula_sala': {'length': <gluon.validators.IS_IN_DB object>, 'notnull': False, 'raw_rname': 'matricula_sala', 'rname': '`matricula_sala`', 'sortable': 5, 'sql': 'INT  , INDEX `matricula_sala__idx` (`matricula_s...`) REFERENCES `cadastro` (`id`) ON DELETE CASCADE', 'type': 'reference cadastro', 'unique': False}, 'nome': {'length': <Table cadastro (id, nome_crianca, data_nascimen...i, nome_resp, email, telefone, sala_matriculado)>, 'notnull': False, 'raw_rname': 'nome', 'rname': '`nome`', 'sortable': 2, 'sql': 'FLOAT', 'type': 'float', 'unique': False}, 'presenca': {'length': 512, 'notnull': False, 'raw_rname': 'presenca', 'rname': '`presenca`', 'sortable': 6, 'sql': 'CHAR(1)', 'type': 'boolean', 'unique': False}}"
p306
sS'obj.iteritems'
p307
S'<built-in method iteritems of dict object>'
p308
ssg76
I655
sg77
(dp309
I650
S'            write(EMPTY_DICT)'
p310
sI651
S"        else:   # proto 0 -- can't use EMPTY_DICT"
p311
sI652
S'            write(MARK + DICT)'
p312
sI653
S''
sI654
S'        self.memoize(obj)'
p313
sI655
S'        self._batch_setitems(obj.iteritems())'
p314
sI656
S''
sI657
S'    dispatch[DictionaryType] = save_dict'
p315
sI658
S'    if not PyStringMap is None:'
p316
sI659
S'        dispatch[PyStringMap] = save_dict'
p317
ssg89
S"(self=<pickle.Pickler instance>, obj={'cartao': {'length': 512, 'notnull': False, 'raw_rname': 'cartao', 'rname': '`cartao`', 'sortable': 4, 'sql': 'VARCHAR(512)', 'type': 'string', 'unique': False}, 'cod_presenca': {'length': 512, 'notnull': False, 'raw_rname': 'cod_presenca', 'rname': '`cod_presenca`', 'sortable': 7, 'sql': 'VARCHAR(512)', 'type': 'string', 'unique': False}, 'data_entrada': {'length': 512, 'notnull': False, 'raw_rname': 'data_entrada', 'rname': '`data_entrada`', 'sortable': 3, 'sql': 'DATETIME', 'type': 'datetime', 'unique': False}, 'id': {'length': 512, 'notnull': False, 'raw_rname': 'id', 'rname': '`id`', 'sortable': 1, 'sql': 'INT AUTO_INCREMENT NOT NULL', 'type': 'id', 'unique': False}, 'matricula_sala': {'length': <gluon.validators.IS_IN_DB object>, 'notnull': False, 'raw_rname': 'matricula_sala', 'rname': '`matricula_sala`', 'sortable': 5, 'sql': 'INT  , INDEX `matricula_sala__idx` (`matricula_s...`) REFERENCES `cadastro` (`id`) ON DELETE CASCADE', 'type': 'reference cadastro', 'unique': False}, 'nome': {'length': <Table cadastro (id, nome_crianca, data_nascimen...i, nome_resp, email, telefone, sala_matriculado)>, 'notnull': False, 'raw_rname': 'nome', 'rname': '`nome`', 'sortable': 2, 'sql': 'FLOAT', 'type': 'float', 'unique': False}, 'presenca': {'length': 512, 'notnull': False, 'raw_rname': 'presenca', 'rname': '`presenca`', 'sortable': 6, 'sql': 'CHAR(1)', 'type': 'boolean', 'unique': False}})"
p318
sg91
S'save_dict'
p319
sa(dp320
g68
S'/usr/lib/python2.7/pickle.py'
p321
sg70
(dp322
S'save'
p323
S'<bound method Pickler.save of <pickle.Pickler instance>>'
p324
sS'v'
S"{'length': <Table cadastro (id, nome_crianca, data_nascimen...i, nome_resp, email, telefone, sala_matriculado)>, 'notnull': False, 'raw_rname': 'nome', 'rname': '`nome`', 'sortable': 2, 'sql': 'FLOAT', 'type': 'float', 'unique': False}"
p325
ssg76
I669
sg77
(dp326
I672
S''
sI673
S'        r = xrange(self._BATCHSIZE)'
p327
sI664
S'        write = self.write'
p328
sI665
S''
sI666
S'        if not self.bin:'
p329
sI667
S'            for k, v in items:'
p330
sI668
S'                save(k)'
p331
sI669
S'                save(v)'
p332
sI670
S'                write(SETITEM)'
p333
sI671
S'            return'
p334
ssg89
S'(self=<pickle.Pickler instance>, items=<dictionary-itemiterator object>)'
p335
sg91
S'_batch_setitems'
p336
sa(dp337
g68
S'/usr/lib/python2.7/pickle.py'
p338
sg70
(dp339
S'self'
p340
S'<pickle.Pickler instance>'
p341
sS'obj'
p342
S"{'length': <Table cadastro (id, nome_crianca, data_nascimen...i, nome_resp, email, telefone, sala_matriculado)>, 'notnull': False, 'raw_rname': 'nome', 'rname': '`nome`', 'sortable': 2, 'sql': 'FLOAT', 'type': 'float', 'unique': False}"
p343
sS'f'
S'<function save_dict>'
p344
ssg76
I286
sg77
(dp345
I288
S''
sI289
S'        # Check copy_reg.dispatch_table'
p346
sI290
S'        reduce = dispatch_table.get(t)'
p347
sI281
S''
sI282
S'        # Check the type dispatch table'
p348
sI283
S'        t = type(obj)'
p349
sI284
S'        f = self.dispatch.get(t)'
p350
sI285
S'        if f:'
p351
sI286
S'            f(self, obj) # Call unbound method with explicit self'
p352
sI287
S'            return'
p353
ssg89
S"(self=<pickle.Pickler instance>, obj={'length': <Table cadastro (id, nome_crianca, data_nascimen...i, nome_resp, email, telefone, sala_matriculado)>, 'notnull': False, 'raw_rname': 'nome', 'rname': '`nome`', 'sortable': 2, 'sql': 'FLOAT', 'type': 'float', 'unique': False})"
p354
sg91
g297
sa(dp355
g68
S'/usr/lib/python2.7/pickle.py'
p356
sg70
(dp357
S'self._batch_setitems'
p358
S'<bound method Pickler._batch_setitems of <pickle.Pickler instance>>'
p359
sS'self'
p360
S'<pickle.Pickler instance>'
p361
sS'obj'
p362
S"{'length': <Table cadastro (id, nome_crianca, data_nascimen...i, nome_resp, email, telefone, sala_matriculado)>, 'notnull': False, 'raw_rname': 'nome', 'rname': '`nome`', 'sortable': 2, 'sql': 'FLOAT', 'type': 'float', 'unique': False}"
p363
sS'obj.iteritems'
p364
S'<built-in method iteritems of dict object>'
p365
ssg76
I655
sg77
(dp366
I650
S'            write(EMPTY_DICT)'
p367
sI651
S"        else:   # proto 0 -- can't use EMPTY_DICT"
p368
sI652
S'            write(MARK + DICT)'
p369
sI653
S''
sI654
S'        self.memoize(obj)'
p370
sI655
S'        self._batch_setitems(obj.iteritems())'
p371
sI656
S''
sI657
S'    dispatch[DictionaryType] = save_dict'
p372
sI658
S'    if not PyStringMap is None:'
p373
sI659
S'        dispatch[PyStringMap] = save_dict'
p374
ssg89
S"(self=<pickle.Pickler instance>, obj={'length': <Table cadastro (id, nome_crianca, data_nascimen...i, nome_resp, email, telefone, sala_matriculado)>, 'notnull': False, 'raw_rname': 'nome', 'rname': '`nome`', 'sortable': 2, 'sql': 'FLOAT', 'type': 'float', 'unique': False})"
p375
sg91
g319
sa(dp376
g68
S'/usr/lib/python2.7/pickle.py'
p377
sg70
(dp378
S'save'
p379
S'<bound method Pickler.save of <pickle.Pickler instance>>'
p380
sS'v'
S'<Table cadastro (id, nome_crianca, data_nascimen...i, nome_resp, email, telefone, sala_matriculado)>'
p381
ssg76
I669
sg77
(dp382
I672
S''
sI673
S'        r = xrange(self._BATCHSIZE)'
p383
sI664
S'        write = self.write'
p384
sI665
S''
sI666
S'        if not self.bin:'
p385
sI667
S'            for k, v in items:'
p386
sI668
S'                save(k)'
p387
sI669
S'                save(v)'
p388
sI670
S'                write(SETITEM)'
p389
sI671
S'            return'
p390
ssg89
S'(self=<pickle.Pickler instance>, items=<dictionary-itemiterator object>)'
p391
sg91
g336
sa(dp392
g68
S'/usr/lib/python2.7/pickle.py'
p393
sg70
(dp394
S'self.save_reduce'
p395
S'<bound method Pickler.save_reduce of <pickle.Pickler instance>>'
p396
sS'self'
p397
S'<pickle.Pickler instance>'
p398
sS'obj'
p399
S'<Table cadastro (id, nome_crianca, data_nascimen...i, nome_resp, email, telefone, sala_matriculado)>'
p400
sS'rv'
p401
S"(<function _reconstructor>, (<class 'pydal.objects.Table'>, <type 'object'>, None), {'ALL': <pydal.helpers.classes.SQLALL object>, '_actual': True, '_after_delete': [], '_after_insert': [], '_after_update': [], '_before_delete': [<function delete_uploaded_files>], '_before_insert': [<function wrapped>], '_before_update': [<function delete_uploaded_files>, <function wrapped>], '_common_filter': None, '_dalname': 'cadastro', ...})"
p402
ssg76
I331
sg77
(dp403
I326
S'        if not (2 <= l <= 5):'
p404
sI327
S'            raise PicklingError("Tuple returned by %s must have "'
p405
sI328
S'                                "two to five elements" % reduce)'
p406
sI329
S''
sI330
S'        # Save the reduce() output and finally memoize the object'
p407
sI331
S'        self.save_reduce(obj=obj, *rv)'
p408
sI332
S''
sI333
S'    def persistent_id(self, obj):'
p409
sI334
S'        # This exists so a subclass can override it'
p410
sI335
S'        return None'
p411
ssg89
S'(self=<pickle.Pickler instance>, obj=<Table cadastro (id, nome_crianca, data_nascimen...i, nome_resp, email, telefone, sala_matriculado)>)'
p412
sg91
g297
sa(dp413
g68
S'/usr/lib/python2.7/pickle.py'
p414
sg70
(dp415
S'state'
p416
S"{'ALL': <pydal.helpers.classes.SQLALL object>, '_actual': True, '_after_delete': [], '_after_insert': [], '_after_update': [], '_before_delete': [<function delete_uploaded_files>], '_before_insert': [<function wrapped>], '_before_update': [<function delete_uploaded_files>, <function wrapped>], '_common_filter': None, '_dalname': 'cadastro', ...}"
p417
sS'save'
p418
S'<bound method Pickler.save of <pickle.Pickler instance>>'
p419
ssg76
I425
sg77
(dp420
I420
S''
sI421
S'        if dictitems is not None:'
p421
sI422
S'            self._batch_setitems(dictitems)'
p422
sI423
S''
sI424
S'        if state is not None:'
p423
sI425
S'            save(state)'
p424
sI426
S'            write(BUILD)'
p425
sI427
S''
sI428
S'    # Methods below this point are dispatched through the dispatch table'
p426
sI429
S''
ssg89
S"(self=<pickle.Pickler instance>, func=<function _reconstructor>, args=(<class 'pydal.objects.Table'>, <type 'object'>, None), state={'ALL': <pydal.helpers.classes.SQLALL object>, '_actual': True, '_after_delete': [], '_after_insert': [], '_after_update': [], '_before_delete': [<function delete_uploaded_files>], '_before_insert': [<function wrapped>], '_before_update': [<function delete_uploaded_files>, <function wrapped>], '_common_filter': None, '_dalname': 'cadastro', ...}, listitems=None, dictitems=None, obj=<Table cadastro (id, nome_crianca, data_nascimen...i, nome_resp, email, telefone, sala_matriculado)>)"
p427
sg91
S'save_reduce'
p428
sa(dp429
g68
S'/usr/lib/python2.7/pickle.py'
p430
sg70
(dp431
S'self'
p432
S'<pickle.Pickler instance>'
p433
sS'obj'
p434
S"{'ALL': <pydal.helpers.classes.SQLALL object>, '_actual': True, '_after_delete': [], '_after_insert': [], '_after_update': [], '_before_delete': [<function delete_uploaded_files>], '_before_insert': [<function wrapped>], '_before_update': [<function delete_uploaded_files>, <function wrapped>], '_common_filter': None, '_dalname': 'cadastro', ...}"
p435
sS'f'
S'<function save_dict>'
p436
ssg76
I286
sg77
(dp437
I288
S''
sI289
S'        # Check copy_reg.dispatch_table'
p438
sI290
S'        reduce = dispatch_table.get(t)'
p439
sI281
S''
sI282
S'        # Check the type dispatch table'
p440
sI283
S'        t = type(obj)'
p441
sI284
S'        f = self.dispatch.get(t)'
p442
sI285
S'        if f:'
p443
sI286
S'            f(self, obj) # Call unbound method with explicit self'
p444
sI287
S'            return'
p445
ssg89
S"(self=<pickle.Pickler instance>, obj={'ALL': <pydal.helpers.classes.SQLALL object>, '_actual': True, '_after_delete': [], '_after_insert': [], '_after_update': [], '_before_delete': [<function delete_uploaded_files>], '_before_insert': [<function wrapped>], '_before_update': [<function delete_uploaded_files>, <function wrapped>], '_common_filter': None, '_dalname': 'cadastro', ...})"
p446
sg91
g297
sa(dp447
g68
S'/usr/lib/python2.7/pickle.py'
p448
sg70
(dp449
S'self._batch_setitems'
p450
S'<bound method Pickler._batch_setitems of <pickle.Pickler instance>>'
p451
sS'self'
p452
S'<pickle.Pickler instance>'
p453
sS'obj'
p454
S"{'ALL': <pydal.helpers.classes.SQLALL object>, '_actual': True, '_after_delete': [], '_after_insert': [], '_after_update': [], '_before_delete': [<function delete_uploaded_files>], '_before_insert': [<function wrapped>], '_before_update': [<function delete_uploaded_files>, <function wrapped>], '_common_filter': None, '_dalname': 'cadastro', ...}"
p455
sS'obj.iteritems'
p456
S'<built-in method iteritems of dict object>'
p457
ssg76
I655
sg77
(dp458
I650
S'            write(EMPTY_DICT)'
p459
sI651
S"        else:   # proto 0 -- can't use EMPTY_DICT"
p460
sI652
S'            write(MARK + DICT)'
p461
sI653
S''
sI654
S'        self.memoize(obj)'
p462
sI655
S'        self._batch_setitems(obj.iteritems())'
p463
sI656
S''
sI657
S'    dispatch[DictionaryType] = save_dict'
p464
sI658
S'    if not PyStringMap is None:'
p465
sI659
S'        dispatch[PyStringMap] = save_dict'
p466
ssg89
S"(self=<pickle.Pickler instance>, obj={'ALL': <pydal.helpers.classes.SQLALL object>, '_actual': True, '_after_delete': [], '_after_insert': [], '_after_update': [], '_before_delete': [<function delete_uploaded_files>], '_before_insert': [<function wrapped>], '_before_update': [<function delete_uploaded_files>, <function wrapped>], '_common_filter': None, '_dalname': 'cadastro', ...})"
p467
sg91
g319
sa(dp468
g68
S'/usr/lib/python2.7/pickle.py'
p469
sg70
(dp470
S'save'
p471
S'<bound method Pickler.save of <pickle.Pickler instance>>'
p472
sS'v'
S'[<function delete_uploaded_files>, <function wrapped>]'
p473
ssg76
I669
sg77
(dp474
I672
S''
sI673
S'        r = xrange(self._BATCHSIZE)'
p475
sI664
S'        write = self.write'
p476
sI665
S''
sI666
S'        if not self.bin:'
p477
sI667
S'            for k, v in items:'
p478
sI668
S'                save(k)'
p479
sI669
S'                save(v)'
p480
sI670
S'                write(SETITEM)'
p481
sI671
S'            return'
p482
ssg89
S'(self=<pickle.Pickler instance>, items=<dictionary-itemiterator object>)'
p483
sg91
g336
sa(dp484
g68
S'/usr/lib/python2.7/pickle.py'
p485
sg70
(dp486
S'self'
p487
S'<pickle.Pickler instance>'
p488
sS'obj'
p489
S'[<function delete_uploaded_files>, <function wrapped>]'
p490
sS'f'
S'<function save_list>'
p491
ssg76
I286
sg77
(dp492
I288
S''
sI289
S'        # Check copy_reg.dispatch_table'
p493
sI290
S'        reduce = dispatch_table.get(t)'
p494
sI281
S''
sI282
S'        # Check the type dispatch table'
p495
sI283
S'        t = type(obj)'
p496
sI284
S'        f = self.dispatch.get(t)'
p497
sI285
S'        if f:'
p498
sI286
S'            f(self, obj) # Call unbound method with explicit self'
p499
sI287
S'            return'
p500
ssg89
S'(self=<pickle.Pickler instance>, obj=[<function delete_uploaded_files>, <function wrapped>])'
p501
sg91
g297
sa(dp502
g68
S'/usr/lib/python2.7/pickle.py'
p503
sg70
(dp504
S'self._batch_appends'
p505
S'<bound method Pickler._batch_appends of <pickle.Pickler instance>>'
p506
sS'obj'
p507
S'[<function delete_uploaded_files>, <function wrapped>]'
p508
sS'self'
p509
S'<pickle.Pickler instance>'
p510
sS'builtiniter'
p511
S'<built-in function iter>'
p512
ssg76
I606
sg77
(dp513
I608
S'    dispatch[ListType] = save_list'
p514
sI609
S''
sI610
S"    # Keep in synch with cPickle's BATCHSIZE.  Nothing will break if it gets"
p515
sI601
S'            write(EMPTY_LIST)'
p516
sI602
S"        else:   # proto 0 -- can't use EMPTY_LIST"
p517
sI603
S'            write(MARK + LIST)'
p518
sI604
S''
sI605
S'        self.memoize(obj)'
p519
sI606
S'        self._batch_appends(iter(obj))'
p520
sI607
S''
ssg89
S'(self=<pickle.Pickler instance>, obj=[<function delete_uploaded_files>, <function wrapped>])'
p521
sg91
S'save_list'
p522
sa(dp523
g68
S'/usr/lib/python2.7/pickle.py'
p524
sg70
(dp525
S'x'
S'<function wrapped>'
p526
sS'save'
p527
S'<bound method Pickler.save of <pickle.Pickler instance>>'
p528
ssg76
I621
sg77
(dp529
I616
S'        save = self.save'
p530
sI617
S'        write = self.write'
p531
sI618
S''
sI619
S'        if not self.bin:'
p532
sI620
S'            for x in items:'
p533
sI621
S'                save(x)'
p534
sI622
S'                write(APPEND)'
p535
sI623
S'            return'
p536
sI624
S''
sI625
S'        r = xrange(self._BATCHSIZE)'
p537
ssg89
S'(self=<pickle.Pickler instance>, items=<listiterator object>)'
p538
sg91
S'_batch_appends'
p539
sa(dp540
g68
S'/usr/lib/python2.7/pickle.py'
p541
sg70
(dp542
S'self'
p543
S'<pickle.Pickler instance>'
p544
sS'obj'
p545
S'<function wrapped>'
p546
sS'f'
S'<function save_global>'
p547
ssg76
I286
sg77
(dp548
I288
S''
sI289
S'        # Check copy_reg.dispatch_table'
p549
sI290
S'        reduce = dispatch_table.get(t)'
p550
sI281
S''
sI282
S'        # Check the type dispatch table'
p551
sI283
S'        t = type(obj)'
p552
sI284
S'        f = self.dispatch.get(t)'
p553
sI285
S'        if f:'
p554
sI286
S'            f(self, obj) # Call unbound method with explicit self'
p555
sI287
S'            return'
p556
ssg89
S'(self=<pickle.Pickler instance>, obj=<function wrapped>)'
p557
sg91
g297
sa(dp558
g68
S'/usr/lib/python2.7/pickle.py'
p559
sg70
(dp560
S'obj'
p561
S'<function wrapped>'
p562
sS'name'
p563
S"'wrapped'"
p564
sS'module'
p565
S"'pydal.helpers.methods'"
p566
ssg76
I754
sg77
(dp567
I749
S'            mod = sys.modules[module]'
p568
sI750
S'            klass = getattr(mod, name)'
p569
sI751
S'        except (ImportError, KeyError, AttributeError):'
p570
sI752
S'            raise PicklingError('
p571
sI753
S'                "Can\'t pickle %r: it\'s not found as %s.%s" %'
p572
sI754
S'                (obj, module, name))'
p573
sI755
S'        else:'
p574
sI756
S'            if klass is not obj:'
p575
sI757
S'                raise PicklingError('
p576
sI758
S'                    "Can\'t pickle %r: it\'s not the same object as %s.%s" %'
p577
ssg89
S"(self=<pickle.Pickler instance>, obj=<function wrapped>, name='wrapped', pack=<built-in function pack>)"
p578
sg91
S'save_global'
p579
sasS'pyver'
p580
S'Python 2.7.15rc1: /usr/bin/python (prefix: /usr)'
p581
sS'session'
p582
g63
(S's;\x01\x00\x00<div><table><tr><td style="font-weight:bold;vertical-align:top;">last_orderby</td><td style="vertical-align:top;">:</td><td><div>None</div></td></tr><tr><td style="font-weight:bold;vertical-align:top;">last_query</td><td style="vertical-align:top;">:</td><td><div>db.frequencia.id&gt;0</div></td></tr></table></div>'
tRp583
sS'etype'
p584
S"<class 'pickle.PicklingError'>"
p585
sS'date'
p586
S'Thu Jun 21 14:38:51 2018'
p587
sS'response'
p588
g63
(S's\x06\x1b\x00\x00<div><table><tr><td style="font-weight:bold;vertical-align:top;">body</td><td style="vertical-align:top;">:</td><td><div>&lt;cStringIO.StringO object at 0x7f9273e61730&gt;</div></td></tr><tr><td style="font-weight:bold;vertical-align:top;">cookies</td><td style="vertical-align:top;">:</td><td><div><table><tr><td style="font-weight:bold;vertical-align:top;">session_id_kidsappmanager</td><td style="vertical-align:top;">:</td><td><div>127.0.0.1-733b7e1d-73a5-4403-93ad-d0e72f4ad5f7<table><tr><td style="font-weight:bold;vertical-align:top;">comment</td><td style="vertical-align:top;">:</td><td><div></div></td></tr><tr><td style="font-weight:bold;vertical-align:top;">domain</td><td style="vertical-align:top;">:</td><td><div></div></td></tr><tr><td style="font-weight:bold;vertical-align:top;">expires</td><td style="vertical-align:top;">:</td><td><div></div></td></tr><tr><td style="font-weight:bold;vertical-align:top;">httponly</td><td style="vertical-align:top;">:</td><td><div></div></td></tr><tr><td style="font-weight:bold;vertical-align:top;">max-age</td><td style="vertical-align:top;">:</td><td><div></div></td></tr><tr><td style="font-weight:bold;vertical-align:top;">path</td><td style="vertical-align:top;">:</td><td><div>/</div></td></tr><tr><td style="font-weight:bold;vertical-align:top;">secure</td><td style="vertical-align:top;">:</td><td><div></div></td></tr><tr><td style="font-weight:bold;vertical-align:top;">version</td><td style="vertical-align:top;">:</td><td><div></div></td></tr></table></div></td></tr></table></div></td></tr><tr><td style="font-weight:bold;vertical-align:top;">delimiters</td><td style="vertical-align:top;">:</td><td><div><table><tr><td><div>{{</div></td></tr><tr><td><div>}}</div></td></tr></table></div></td></tr><tr><td style="font-weight:bold;vertical-align:top;">files</td><td style="vertical-align:top;">:</td><td><div><table></table></div></td></tr><tr><td style="font-weight:bold;vertical-align:top;">flash</td><td style="vertical-align:top;">:</td><td><div></div></td></tr><tr><td style="font-weight:bold;vertical-align:top;">form_label_separator</td><td style="vertical-align:top;">:</td><td><div></div></td></tr><tr><td style="font-weight:bold;vertical-align:top;">formstyle</td><td style="vertical-align:top;">:</td><td><div>bootstrap4_inline</div></td></tr><tr><td style="font-weight:bold;vertical-align:top;">generic_patterns</td><td style="vertical-align:top;">:</td><td><div><table><tr><td><div>*</div></td></tr></table></div></td></tr><tr><td style="font-weight:bold;vertical-align:top;">google_analytics_id</td><td style="vertical-align:top;">:</td><td><div>None</div></td></tr><tr><td style="font-weight:bold;vertical-align:top;">headers</td><td style="vertical-align:top;">:</td><td><div><table><tr><td style="font-weight:bold;vertical-align:top;">X-Powered-By</td><td style="vertical-align:top;">:</td><td><div>web2py</div></td></tr></table></div></td></tr><tr><td style="font-weight:bold;vertical-align:top;">menu</td><td style="vertical-align:top;">:</td><td><div><table></table></div></td></tr><tr><td style="font-weight:bold;vertical-align:top;">meta</td><td style="vertical-align:top;">:</td><td><div><table><tr><td style="font-weight:bold;vertical-align:top;">author</td><td style="vertical-align:top;">:</td><td><div>Your Name &lt;you@example.com&gt;</div></td></tr><tr><td style="font-weight:bold;vertical-align:top;">description</td><td style="vertical-align:top;">:</td><td><div>a cool new app</div></td></tr><tr><td style="font-weight:bold;vertical-align:top;">generator</td><td style="vertical-align:top;">:</td><td><div>Web2py Web Framework</div></td></tr><tr><td style="font-weight:bold;vertical-align:top;">keywords</td><td style="vertical-align:top;">:</td><td><div><table><tr><td><div>web2py</div></td></tr><tr><td><div>python</div></td></tr><tr><td><div>framework</div></td></tr></table></div></td></tr></table></div></td></tr><tr><td style="font-weight:bold;vertical-align:top;">models_to_run</td><td style="vertical-align:top;">:</td><td><div><table><tr><td><div>^\\w+\\.py$</div></td></tr><tr><td><div>^default/\\w+\\.py$</div></td></tr><tr><td><div>^default/busca_aluno/\\w+\\.py$</div></td></tr></table></div></td></tr><tr><td style="font-weight:bold;vertical-align:top;">postprocessing</td><td style="vertical-align:top;">:</td><td><div><table></table></div></td></tr><tr><td style="font-weight:bold;vertical-align:top;">session_client</td><td style="vertical-align:top;">:</td><td><div>127.0.0.1</div></td></tr><tr><td style="font-weight:bold;vertical-align:top;">session_cookie_compression_level</td><td style="vertical-align:top;">:</td><td><div>None</div></td></tr><tr><td style="font-weight:bold;vertical-align:top;">session_cookie_expires</td><td style="vertical-align:top;">:</td><td><div>None</div></td></tr><tr><td style="font-weight:bold;vertical-align:top;">session_data_name</td><td style="vertical-align:top;">:</td><td><div>session_data_kidsappmanager</div></td></tr><tr><td style="font-weight:bold;vertical-align:top;">session_file</td><td style="vertical-align:top;">:</td><td><div>&lt;open file &#x27;/home/leonardo/Downloads/web2py/applications/KidsAppManager/sessions/18f/1ed/127.0.0.1-733b7e1d-73a5-4403-93ad-d0e72f4ad5f7&#x27;, mode &#x27;rb+&#x27; at 0x7f92700af540&gt;</div></td></tr><tr><td style="font-weight:bold;vertical-align:top;">session_filename</td><td style="vertical-align:top;">:</td><td><div>/home/leonardo/Downloads/web2py/applications/KidsAppManager/sessions/127.0.0.1-733b7e1d-73a5-4403-93ad-d0e72f4ad5f7</div></td></tr><tr><td style="font-weight:bold;vertical-align:top;">session_hash</td><td style="vertical-align:top;">:</td><td><div>e9b4b206f45ff05a225d000d85a94998</div></td></tr><tr><td style="font-weight:bold;vertical-align:top;">session_id</td><td style="vertical-align:top;">:</td><td><div>127.0.0.1-733b7e1d-73a5-4403-93ad-d0e72f4ad5f7</div></td></tr><tr><td style="font-weight:bold;vertical-align:top;">session_id_name</td><td style="vertical-align:top;">:</td><td><div>session_id_kidsappmanager</div></td></tr><tr><td style="font-weight:bold;vertical-align:top;">session_locked</td><td style="vertical-align:top;">:</td><td><div>True</div></td></tr><tr><td style="font-weight:bold;vertical-align:top;">session_masterapp</td><td style="vertical-align:top;">:</td><td><div>KidsAppManager</div></td></tr><tr><td style="font-weight:bold;vertical-align:top;">session_new</td><td style="vertical-align:top;">:</td><td><div>False</div></td></tr><tr><td style="font-weight:bold;vertical-align:top;">session_storage_type</td><td style="vertical-align:top;">:</td><td><div>file</div></td></tr><tr><td style="font-weight:bold;vertical-align:top;">status</td><td style="vertical-align:top;">:</td><td><div>200</div></td></tr><tr><td style="font-weight:bold;vertical-align:top;">view</td><td style="vertical-align:top;">:</td><td><div>default/busca_aluno.html</div></td></tr></table></div>'
tRp589
sS'locals'
p590
(dp591
S'obj'
p592
S'<function wrapped>'
p593
sS'name'
p594
S"'wrapped'"
p595
sS'memo'
p596
S'{94319622605184: (38, <type \'object\'>), 94319625790096: (37, <class \'pydal.objects.Table\'>), 94319625795248: (52, <class \'pydal.objects.Field\'>), 94319627568688: (104, <class \'gluon.validators.IS_NOT_EMPTY\'>), 140266793591112: (1, \'data_entrada\'), 140266793598040: (0, {\'cartao\': {\'length\': 512, \'notnull\': False, \'raw_rname\': \'cartao\', \'rname\': \'`cartao`\', \'sortable\': 4, \'sql\': \'VARCHAR(512)\', \'type\': \'string\', \'unique\': False}, \'cod_presenca\': {\'length\': 512, \'notnull\': False, \'raw_rname\': \'cod_presenca\', \'rname\': \'`cod_presenca`\', \'sortable\': 7, \'sql\': \'VARCHAR(512)\', \'type\': \'string\', \'unique\': False}, \'data_entrada\': {\'length\': 512, \'notnull\': False, \'raw_rname\': \'data_entrada\', \'rname\': \'`data_entrada`\', \'sortable\': 3, \'sql\': \'DATETIME\', \'type\': \'datetime\', \'unique\': False}, \'id\': {\'length\': 512, \'notnull\': False, \'raw_rname\': \'id\', \'rname\': \'`id`\', \'sortable\': 1, \'sql\': \'INT AUTO_INCREMENT NOT NULL\', \'type\': \'id\', \'unique\': False}, \'matricula_sala\': {\'length\': <gluon.validators.IS_IN_DB object>, \'notnull\': False, \'raw_rname\': \'matricula_sala\', \'rname\': \'`matricula_sala`\', \'sortable\': 5, \'sql\': \'INT  , INDEX `matricula_sala__idx` (`matricula_s...`) REFERENCES `cadastro` (`id`) ON DELETE CASCADE\', \'type\': \'reference cadastro\', \'unique\': False}, \'nome\': {\'length\': <Table cadastro (id, nome_crianca, data_nascimen...i, nome_resp, email, telefone, sala_matriculado)>, \'notnull\': False, \'raw_rname\': \'nome\', \'rname\': \'`nome`\', \'sortable\': 2, \'sql\': \'FLOAT\', \'type\': \'float\', \'unique\': False}, \'presenca\': {\'length\': 512, \'notnull\': False, \'raw_rname\': \'presenca\', \'rname\': \'`presenca`\', \'sortable\': 6, \'sql\': \'CHAR(1)\', \'type\': \'boolean\', \'unique\': False}}), 140266793674512: (48, <DAL uri="mysql:******@localhost/kids2">), 140266793725536: (125, []), 140266793749312: (16, {\'length\': 512, \'notnull\': False, \'raw_rname\': \'presenca\', \'rname\': \'`presenca`\', \'sortable\': 6, \'sql\': \'CHAR(1)\', \'type\': \'boolean\', \'unique\': False}), 140266793749592: (22, {\'length\': 512, \'notnull\': False, \'raw_rname\': \'cartao\', \'rname\': \'`cartao`\', \'sortable\': 4, \'sql\': \'VARCHAR(512)\', \'type\': \'string\', \'unique\': False}), ...}'
p597
sS'module'
p598
S"'pydal.helpers.methods'"
p599
sS'write'
p600
S'<bound method LockedFile.write of <pydal.contrib.portalocker.LockedFile object>>'
p601
sS'pack'
p602
S'<built-in function pack>'
p603
sS'self'
p604
S'<pickle.Pickler instance>'
p605
sS'mod'
p606
S"<module 'pydal.helpers.methods' from '/home/leon...py/gluon/packages/dal/pydal/helpers/methods.pyc'>"
p607
sssS'traceback'
p608
S'Traceback (most recent call last):\n  File "/home/leonardo/Downloads/web2py/gluon/restricted.py", line 219, in restricted\n    exec(ccode, environment)\n  File "/home/leonardo/Downloads/web2py/applications/KidsAppManager/models/db.py", line 195, in <module>\n    Field(\'cod_presenca\', label=(\'C\xc3\xb3digo da Presen\xc3\xa7a\'))\n  File "/home/leonardo/Downloads/web2py/gluon/packages/dal/pydal/base.py", line 586, in define_table\n    table = self.lazy_define_table(tablename, *fields, **args)\n  File "/home/leonardo/Downloads/web2py/gluon/packages/dal/pydal/base.py", line 620, in lazy_define_table\n    polymodel=polymodel)\n  File "/home/leonardo/Downloads/web2py/gluon/packages/dal/pydal/adapters/base.py", line 797, in create_table\n    return self.migrator.create_table(*args, **kwargs)\n  File "/home/leonardo/Downloads/web2py/gluon/packages/dal/pydal/migrator.py", line 314, in create_table\n    fake_migrate=fake_migrate\n  File "/home/leonardo/Downloads/web2py/gluon/packages/dal/pydal/migrator.py", line 455, in migrate_table\n    self.save_dbt(table, sql_fields_current)\n  File "/home/leonardo/Downloads/web2py/gluon/packages/dal/pydal/migrator.py", line 469, in save_dbt\n    pickle.dump(sql_fields_current, tfile)\n  File "/usr/lib/python2.7/pickle.py", line 1376, in dump\n    Pickler(file, protocol).dump(obj)\n  File "/usr/lib/python2.7/pickle.py", line 224, in dump\n    self.save(obj)\n  File "/usr/lib/python2.7/pickle.py", line 286, in save\n    f(self, obj) # Call unbound method with explicit self\n  File "/usr/lib/python2.7/pickle.py", line 655, in save_dict\n    self._batch_setitems(obj.iteritems())\n  File "/usr/lib/python2.7/pickle.py", line 669, in _batch_setitems\n    save(v)\n  File "/usr/lib/python2.7/pickle.py", line 286, in save\n    f(self, obj) # Call unbound method with explicit self\n  File "/usr/lib/python2.7/pickle.py", line 655, in save_dict\n    self._batch_setitems(obj.iteritems())\n  File "/usr/lib/python2.7/pickle.py", line 669, in _batch_setitems\n    save(v)\n  File "/usr/lib/python2.7/pickle.py", line 331, in save\n    self.save_reduce(obj=obj, *rv)\n  File "/usr/lib/python2.7/pickle.py", line 425, in save_reduce\n    save(state)\n  File "/usr/lib/python2.7/pickle.py", line 286, in save\n    f(self, obj) # Call unbound method with explicit self\n  File "/usr/lib/python2.7/pickle.py", line 655, in save_dict\n    self._batch_setitems(obj.iteritems())\n  File "/usr/lib/python2.7/pickle.py", line 669, in _batch_setitems\n    save(v)\n  File "/usr/lib/python2.7/pickle.py", line 286, in save\n    f(self, obj) # Call unbound method with explicit self\n  File "/usr/lib/python2.7/pickle.py", line 606, in save_list\n    self._batch_appends(iter(obj))\n  File "/usr/lib/python2.7/pickle.py", line 621, in _batch_appends\n    save(x)\n  File "/usr/lib/python2.7/pickle.py", line 286, in save\n    f(self, obj) # Call unbound method with explicit self\n  File "/usr/lib/python2.7/pickle.py", line 754, in save_global\n    (obj, module, name))\nPicklingError: Can\'t pickle <function wrapped at 0x7f92686aab90>: it\'s not found as pydal.helpers.methods.wrapped\n'
p609
s.