(dp1
S'output'
p2
S"<class 'gluon.contrib.pymysql.err.IntegrityError'> (1452, u'Cannot add or update a child row: a foreign key constraint fails (`appkids2`.`frequencia`, CONSTRAINT `frequencia_ibfk_3` FOREIGN KEY (`nome`) REFERENCES `cadastro` (`id`) ON DELETE CASCADE)')"
p3
sS'layer'
p4
S'/home/leonardo/Downloads/web2py/applications/KidsAppManager/controllers/default.py'
p5
sS'code'
p6
S'<code object <module> at 0x7f9edc13e4b0, file "/home/leonardo/Downloads/web2py/applications/KidsAppManager/controllers/default.py", line 9>'
p7
sS'snapshot'
p8
(dp9
sS'traceback'
p10
S'Traceback (most recent call last):\n  File "/home/leonardo/Downloads/web2py/gluon/restricted.py", line 219, in restricted\n    exec(ccode, environment)\n  File "/home/leonardo/Downloads/web2py/applications/KidsAppManager/controllers/default.py", line 142, in <module>\n  File "/home/leonardo/Downloads/web2py/gluon/globals.py", line 419, in <lambda>\n    self._caller = lambda f: f()\n  File "/home/leonardo/Downloads/web2py/applications/KidsAppManager/controllers/default.py", line 135, in lista_presenca\n    return dict(grid=SQLFORM.smartgrid(db.frequencia,linked_tables=[\'frequencia\'],user_signature=False))\n  File "/home/leonardo/Downloads/web2py/gluon/sqlhtml.py", line 3338, in smartgrid\n    user_signature=user_signature, **kwargs)\n  File "/home/leonardo/Downloads/web2py/gluon/sqlhtml.py", line 2582, in grid\n    next=referrer)\n  File "/home/leonardo/Downloads/web2py/gluon/html.py", line 2300, in process\n    self.validate(**kwargs)\n  File "/home/leonardo/Downloads/web2py/gluon/html.py", line 2238, in validate\n    if self.accepts(**kwargs):\n  File "/home/leonardo/Downloads/web2py/gluon/sqlhtml.py", line 1963, in accepts\n    self.id_field_name]).update(**fields)\n  File "/home/leonardo/Downloads/web2py/gluon/packages/dal/pydal/objects.py", line 2289, in update\n    ret = db._adapter.update(table, self.query, row.op_values())\n  File "/home/leonardo/Downloads/web2py/gluon/packages/dal/pydal/adapters/base.py", line 523, in update\n    raise e\nIntegrityError: (1452, u\'Cannot add or update a child row: a foreign key constraint fails (`appkids2`.`frequencia`, CONSTRAINT `frequencia_ibfk_3` FOREIGN KEY (`nome`) REFERENCES `cadastro` (`id`) ON DELETE CASCADE)\')\n'
p11
s.