(dp1
S'output'
p2
S"<type 'exceptions.AttributeError'> 'Expression' object has no attribute 'writable'"
p3
sS'layer'
p4
S'/home/leonardo/Downloads/web2py/applications/KidsAppManager/controllers/default.py'
p5
sS'code'
p6
S'<code object <module> at 0x7fe14ae8e230, file "/home/leonardo/Downloads/web2py/applications/KidsAppManager/controllers/default.py", line 8>'
p7
sS'snapshot'
p8
(dp9
sS'traceback'
p10
S'Traceback (most recent call last):\n  File "/home/leonardo/Downloads/web2py/gluon/restricted.py", line 219, in restricted\n    exec(ccode, environment)\n  File "/home/leonardo/Downloads/web2py/applications/KidsAppManager/controllers/default.py", line 98, in <module>\n  File "/home/leonardo/Downloads/web2py/gluon/globals.py", line 419, in <lambda>\n    self._caller = lambda f: f()\n  File "/home/leonardo/Downloads/web2py/applications/KidsAppManager/controllers/default.py", line 96, in mostrakids\n    form = SQLFORM(db.cadastro.id).select(\'nome_crianca\')\n  File "/home/leonardo/Downloads/web2py/gluon/sqlhtml.py", line 1349, in __init__\n    (ignore_rw or f.writable or f.readable) and\nAttributeError: \'Expression\' object has no attribute \'writable\'\n'
p11
s.