(dp1
S'output'
p2
S'<class \'gluon.contrib.pymysql.err.InternalError\'> (1050, u"Table \'frequencia\' already exists")'
p3
sS'layer'
p4
S'/home/leonardo/Downloads/web2py/applications/KidsAppManager/models/db.py'
p5
sS'code'
p6
S'<code object <module> at 0x7f26c81072b0, file "/home/leonardo/Downloads/web2py/applications/KidsAppManager/models/db.py", line 7>'
p7
sS'snapshot'
p8
(dp9
S'exception'
p10
(dp11
S'__module__'
p12
S"'gluon.contrib.pymysql.err'"
p13
sS'__getslice__'
p14
S"<method-wrapper '__getslice__' of InternalError object>"
p15
sS'__str__'
p16
S"<method-wrapper '__str__' of InternalError object>"
p17
sS'__reduce__'
p18
S'<built-in method __reduce__ of InternalError object>'
p19
sS'__dict__'
p20
S'{}'
p21
sS'__sizeof__'
p22
S'<built-in method __sizeof__ of InternalError object>'
p23
sS'__weakref__'
p24
S'None'
p25
sS'message'
p26
S"''"
p27
sS'__init__'
p28
S"<method-wrapper '__init__' of InternalError object>"
p29
sS'__setattr__'
p30
S"<method-wrapper '__setattr__' of InternalError object>"
p31
sS'__reduce_ex__'
p32
S'<built-in method __reduce_ex__ of InternalError object>'
p33
sS'__new__'
p34
S'<built-in method __new__ of type object>'
p35
sS'__format__'
p36
S'<built-in method __format__ of InternalError object>'
p37
sS'__class__'
p38
S"<class 'gluon.contrib.pymysql.err.InternalError'>"
p39
sS'__doc__'
p40
S"'Exception raised when the database encounters an...anymore, the transaction is\\n    out of sync, etc.'"
p41
sS'__getitem__'
p42
S"<method-wrapper '__getitem__' of InternalError object>"
p43
sS'__setstate__'
p44
S'<built-in method __setstate__ of InternalError object>'
p45
sS'__getattribute__'
p46
S"<method-wrapper '__getattribute__' of InternalError object>"
p47
sS'args'
p48
S'(1050, u"Table \'frequencia\' already exists")'
p49
sS'__subclasshook__'
p50
S'<built-in method __subclasshook__ of type object>'
p51
sS'__unicode__'
p52
S'<built-in method __unicode__ of InternalError object>'
p53
sS'__delattr__'
p54
S"<method-wrapper '__delattr__' of InternalError object>"
p55
sS'__repr__'
p56
S"<method-wrapper '__repr__' of InternalError object>"
p57
sS'__hash__'
p58
S"<method-wrapper '__hash__' of InternalError object>"
p59
ssS'evalue'
p60
S'(1050, u"Table \'frequencia\' already exists")'
p61
sS'request'
p62
cgluon.html
XML_unpickle
p63
(S's]Z\x00\x00<div><table><tr><td style="font-weight:bold;vertical-align:top;">ajax</td><td style="vertical-align:top;">:</td><td><div>False</div></td></tr><tr><td style="font-weight:bold;vertical-align:top;">application</td><td style="vertical-align:top;">:</td><td><div>KidsAppManager</div></td></tr><tr><td style="font-weight:bold;vertical-align:top;">args</td><td style="vertical-align:top;">:</td><td><div><table></table></div></td></tr><tr><td style="font-weight:bold;vertical-align:top;">cid</td><td style="vertical-align:top;">:</td><td><div>None</div></td></tr><tr><td style="font-weight:bold;vertical-align:top;">client</td><td style="vertical-align:top;">:</td><td><div>127.0.0.1</div></td></tr><tr><td style="font-weight:bold;vertical-align:top;">controller</td><td style="vertical-align:top;">:</td><td><div>default</div></td></tr><tr><td style="font-weight:bold;vertical-align:top;">cookies</td><td style="vertical-align:top;">:</td><td><div><table><tr><td style="font-weight:bold;vertical-align:top;">session_id_admin</td><td style="vertical-align:top;">:</td><td><div>127.0.0.1-ce796df0-367a-45fc-b21e-84592f3091ae<table><tr><td style="font-weight:bold;vertical-align:top;">comment</td><td style="vertical-align:top;">:</td><td><div></div></td></tr><tr><td style="font-weight:bold;vertical-align:top;">domain</td><td style="vertical-align:top;">:</td><td><div></div></td></tr><tr><td style="font-weight:bold;vertical-align:top;">expires</td><td style="vertical-align:top;">:</td><td><div></div></td></tr><tr><td style="font-weight:bold;vertical-align:top;">httponly</td><td style="vertical-align:top;">:</td><td><div></div></td></tr><tr><td style="font-weight:bold;vertical-align:top;">max-age</td><td style="vertical-align:top;">:</td><td><div></div></td></tr><tr><td style="font-weight:bold;vertical-align:top;">path</td><td style="vertical-align:top;">:</td><td><div></div></td></tr><tr><td style="font-weight:bold;vertical-align:top;">secure</td><td style="vertical-align:top;">:</td><td><div></div></td></tr><tr><td style="font-weight:bold;vertical-align:top;">version</td><td style="vertical-align:top;">:</td><td><div></div></td></tr></table></div></td></tr><tr><td style="font-weight:bold;vertical-align:top;">session_id_kidsappmanager</td><td style="vertical-align:top;">:</td><td><div>127.0.0.1-733b7e1d-73a5-4403-93ad-d0e72f4ad5f7<table><tr><td style="font-weight:bold;vertical-align:top;">comment</td><td style="vertical-align:top;">:</td><td><div></div></td></tr><tr><td style="font-weight:bold;vertical-align:top;">domain</td><td style="vertical-align:top;">:</td><td><div></div></td></tr><tr><td style="font-weight:bold;vertical-align:top;">expires</td><td style="vertical-align:top;">:</td><td><div></div></td></tr><tr><td style="font-weight:bold;vertical-align:top;">httponly</td><td style="vertical-align:top;">:</td><td><div></div></td></tr><tr><td style="font-weight:bold;vertical-align:top;">max-age</td><td style="vertical-align:top;">:</td><td><div></div></td></tr><tr><td style="font-weight:bold;vertical-align:top;">path</td><td style="vertical-align:top;">:</td><td><div></div></td></tr><tr><td style="font-weight:bold;vertical-align:top;">secure</td><td style="vertical-align:top;">:</td><td><div></div></td></tr><tr><td style="font-weight:bold;vertical-align:top;">version</td><td style="vertical-align:top;">:</td><td><div></div></td></tr></table></div></td></tr></table></div></td></tr><tr><td style="font-weight:bold;vertical-align:top;">env</td><td style="vertical-align:top;">:</td><td><div><table><tr><td style="font-weight:bold;vertical-align:top;">HTTP_ACCEPT</td><td style="vertical-align:top;">:</td><td><div>text/html,application/xhtml+xml,application/xml;q=0.9,image/webp,image/apng,*/*;q=0.8</div></td></tr><tr><td style="font-weight:bold;vertical-align:top;">HTTP_ACCEPT_ENCODING</td><td style="vertical-align:top;">:</td><td><div>gzip, deflate, br</div></td></tr><tr><td style="font-weight:bold;vertical-align:top;">HTTP_ACCEPT_LANGUAGE</td><td style="vertical-align:top;">:</td><td><div>pt-BR,pt;q=0.9,en-US;q=0.8,en;q=0.7</div></td></tr><tr><td style="font-weight:bold;vertical-align:top;">HTTP_CACHE_CONTROL</td><td style="vertical-align:top;">:</td><td><div>max-age=0</div></td></tr><tr><td style="font-weight:bold;vertical-align:top;">HTTP_CONNECTION</td><td style="vertical-align:top;">:</td><td><div>keep-alive</div></td></tr><tr><td style="font-weight:bold;vertical-align:top;">HTTP_COOKIE</td><td style="vertical-align:top;">:</td><td><div>session_id_admin=127.0.0.1-ce796df0-367a-45fc-b21e-84592f3091ae; session_id_kidsappmanager=127.0.0.1-733b7e1d-73a5-4403-93ad-d0e72f4ad5f7</div></td></tr><tr><td style="font-weight:bold;vertical-align:top;">HTTP_HOST</td><td style="vertical-align:top;">:</td><td><div>127.0.0.1:8000</div></td></tr><tr><td style="font-weight:bold;vertical-align:top;">HTTP_REFERER</td><td style="vertical-align:top;">:</td><td><div>http://127.0.0.1:8000/KidsAppManager/default/busca_aluno?nome_kids=Arthur&amp;lista_presenca=</div></td></tr><tr><td style="font-weight:bold;vertical-align:top;">HTTP_UPGRADE_INSECURE_REQUESTS</td><td style="vertical-align:top;">:</td><td><div>1</div></td></tr><tr><td style="font-weight:bold;vertical-align:top;">HTTP_USER_AGENT</td><td style="vertical-align:top;">:</td><td><div>Mozilla/5.0 (X11; Linux x86_64) AppleWebKit/537.36 (KHTML, like Gecko) Chrome/67.0.3396.87 Safari/537.36</div></td></tr><tr><td style="font-weight:bold;vertical-align:top;">PATH_INFO</td><td style="vertical-align:top;">:</td><td><div>/KidsAppManager/default/busca_aluno</div></td></tr><tr><td style="font-weight:bold;vertical-align:top;">QUERY_STRING</td><td style="vertical-align:top;">:</td><td><div>c_nome=Arthur&amp;c_matricula=6&amp;c_email=leomanancial%40hotmail.com&amp;c_resp=Leo&amp;c_sala=Amarela&amp;c_cartao=</div></td></tr><tr><td style="font-weight:bold;vertical-align:top;">REMOTE_ADDR</td><td style="vertical-align:top;">:</td><td><div>127.0.0.1</div></td></tr><tr><td style="font-weight:bold;vertical-align:top;">REMOTE_PORT</td><td style="vertical-align:top;">:</td><td><div>57424</div></td></tr><tr><td style="font-weight:bold;vertical-align:top;">REQUEST_METHOD</td><td style="vertical-align:top;">:</td><td><div>GET</div></td></tr><tr><td style="font-weight:bold;vertical-align:top;">SCRIPT_NAME</td><td style="vertical-align:top;">:</td><td><div></div></td></tr><tr><td style="font-weight:bold;vertical-align:top;">SERVER_NAME</td><td style="vertical-align:top;">:</td><td><div>Unknow</div></td></tr><tr><td style="font-weight:bold;vertical-align:top;">SERVER_PORT</td><td style="vertical-align:top;">:</td><td><div>8000</div></td></tr><tr><td style="font-weight:bold;vertical-align:top;">SERVER_PROTOCOL</td><td style="vertical-align:top;">:</td><td><div>HTTP/1.1</div></td></tr><tr><td style="font-weight:bold;vertical-align:top;">SERVER_SOFTWARE</td><td style="vertical-align:top;">:</td><td><div>Rocket 1.2.6</div></td></tr><tr><td style="font-weight:bold;vertical-align:top;">app_folders</td><td style="vertical-align:top;">:</td><td><div>set([&#x27;/home/leonardo/Downloads/web2py/applications/KidsAppManager/&#x27;, &#x27;/home/leonardo/Downloads/web2py/applications/admin/&#x27;])</div></td></tr><tr><td style="font-weight:bold;vertical-align:top;">applications_parent</td><td style="vertical-align:top;">:</td><td><div>/home/leonardo/Downloads/web2py</div></td></tr><tr><td style="font-weight:bold;vertical-align:top;">cmd_args</td><td style="vertical-align:top;">:</td><td><div><table></table></div></td></tr><tr><td style="font-weight:bold;vertical-align:top;">cmd_options</td><td style="vertical-align:top;">:</td><td><div>&lt;Values at 0x7f26c9c7c8c0: {&#x27;verbose&#x27;: False, &#x27;ip&#x27;: &#x27;127.0.0.1&#x27;, &#x27;debuglevel&#x27;: 30, &#x27;with_scheduler&#x27;: False, &#x27;shutdown_timeout&#x27;: 5, &#x27;taskbar&#x27;: False, &#x27;with_coverage&#x27;: False, &#x27;pid_filename&#x27;: &#x27;httpserver.pid&#x27;, &#x27;maxthreads&#x27;: None, &#x27;softcron&#x27;: False, &#x27;server_name&#x27;: &#x27;Unknow&#x27;, &#x27;bpython&#x27;: False, &#x27;nogui&#x27;: False, &#x27;port&#x27;: 8000, &#x27;print_errors&#x27;: False, &#x27;extcron&#x27;: False, &#x27;runcron&#x27;: False, &#x27;run_system_tests&#x27;: False, &#x27;test&#x27;: None, &#x27;folder&#x27;: &#x27;/home/leonardo/Downloads/web2py&#x27;, &#x27;config&#x27;: &#x27;&#x27;, &#x27;minthreads&#x27;: None, &#x27;shell&#x27;: None, &#x27;run&#x27;: &#x27;&#x27;, &#x27;log_filename&#x27;: &#x27;httpserver.log&#x27;, &#x27;profiler_dir&#x27;: None, &#x27;args&#x27;: [&#x27;&#x27;], &#x27;socket_timeout&#x27;: 5, &#x27;ssl_ca_certificate&#x27;: None, &#x27;scheduler&#x27;: None, &#x27;interfaces&#x27;: None, &#x27;ssl_private_key&#x27;: &#x27;&#x27;, &#x27;gae&#x27;: None, &#x27;password&#x27;: &#x27;******&#x27;, &#x27;request_queue_size&#x27;: 5, &#x27;ssl_certificate&#x27;: &#x27;&#x27;, &#x27;cronjob&#x27;: False, &#x27;numthreads&#x27;: None, &#x27;quiet&#x27;: False, &#x27;import_models&#x27;: False, &#x27;timeout&#x27;: 10, &#x27;plain&#x27;: False, &#x27;nobanner&#x27;: False}&gt;</div></td></tr><tr><td style="font-weight:bold;vertical-align:top;">db_sessions</td><td style="vertical-align:top;">:</td><td><div>set([])</div></td></tr><tr><td style="font-weight:bold;vertical-align:top;">debugging</td><td style="vertical-align:top;">:</td><td><div>False</div></td></tr><tr><td style="font-weight:bold;vertical-align:top;">gluon_parent</td><td style="vertical-align:top;">:</td><td><div>/home/leonardo/Downloads/web2py</div></td></tr><tr><td style="font-weight:bold;vertical-align:top;">http_accept</td><td style="vertical-align:top;">:</td><td><div>text/html,application/xhtml+xml,application/xml;q=0.9,image/webp,image/apng,*/*;q=0.8</div></td></tr><tr><td style="font-weight:bold;vertical-align:top;">http_accept_encoding</td><td style="vertical-align:top;">:</td><td><div>gzip, deflate, br</div></td></tr><tr><td style="font-weight:bold;vertical-align:top;">http_accept_language</td><td style="vertical-align:top;">:</td><td><div>pt-BR,pt;q=0.9,en-US;q=0.8,en;q=0.7</div></td></tr><tr><td style="font-weight:bold;vertical-align:top;">http_cache_control</td><td style="vertical-align:top;">:</td><td><div>max-age=0</div></td></tr><tr><td style="font-weight:bold;vertical-align:top;">http_connection</td><td style="vertical-align:top;">:</td><td><div>keep-alive</div></td></tr><tr><td style="font-weight:bold;vertical-align:top;">http_cookie</td><td style="vertical-align:top;">:</td><td><div>session_id_admin=127.0.0.1-ce796df0-367a-45fc-b21e-84592f3091ae; session_id_kidsappmanager=127.0.0.1-733b7e1d-73a5-4403-93ad-d0e72f4ad5f7</div></td></tr><tr><td style="font-weight:bold;vertical-align:top;">http_host</td><td style="vertical-align:top;">:</td><td><div>127.0.0.1:8000</div></td></tr><tr><td style="font-weight:bold;vertical-align:top;">http_referer</td><td style="vertical-align:top;">:</td><td><div>http://127.0.0.1:8000/KidsAppManager/default/busca_aluno?nome_kids=Arthur&amp;lista_presenca=</div></td></tr><tr><td style="font-weight:bold;vertical-align:top;">http_upgrade_insecure_requests</td><td style="vertical-align:top;">:</td><td><div>1</div></td></tr><tr><td style="font-weight:bold;vertical-align:top;">http_user_agent</td><td style="vertical-align:top;">:</td><td><div>Mozilla/5.0 (X11; Linux x86_64) AppleWebKit/537.36 (KHTML, like Gecko) Chrome/67.0.3396.87 Safari/537.36</div></td></tr><tr><td style="font-weight:bold;vertical-align:top;">is_jython</td><td style="vertical-align:top;">:</td><td><div>False</div></td></tr><tr><td style="font-weight:bold;vertical-align:top;">is_py2</td><td style="vertical-align:top;">:</td><td><div>True</div></td></tr><tr><td style="font-weight:bold;vertical-align:top;">is_pypy</td><td style="vertical-align:top;">:</td><td><div>False</div></td></tr><tr><td style="font-weight:bold;vertical-align:top;">is_source</td><td style="vertical-align:top;">:</td><td><div>True</div></td></tr><tr><td style="font-weight:bold;vertical-align:top;">local_hosts</td><td style="vertical-align:top;">:</td><td><div><table><tr><td><div>127.0.1.1</div></td></tr><tr><td><div>::1</div></td></tr><tr><td><div>Unknow</div></td></tr><tr><td><div>::ffff:127.0.0.1</div></td></tr><tr><td><div>127.0.0.1</div></td></tr></table></div></td></tr><tr><td style="font-weight:bold;vertical-align:top;">path_info</td><td style="vertical-align:top;">:</td><td><div>/KidsAppManager/default/busca_aluno</div></td></tr><tr><td style="font-weight:bold;vertical-align:top;">query_string</td><td style="vertical-align:top;">:</td><td><div>c_nome=Arthur&amp;c_matricula=6&amp;c_email=leomanancial%40hotmail.com&amp;c_resp=Leo&amp;c_sala=Amarela&amp;c_cartao=</div></td></tr><tr><td style="font-weight:bold;vertical-align:top;">remote_addr</td><td style="vertical-align:top;">:</td><td><div>127.0.0.1</div></td></tr><tr><td style="font-weight:bold;vertical-align:top;">remote_port</td><td style="vertical-align:top;">:</td><td><div>57424</div></td></tr><tr><td style="font-weight:bold;vertical-align:top;">request_method</td><td style="vertical-align:top;">:</td><td><div>GET</div></td></tr><tr><td style="font-weight:bold;vertical-align:top;">request_uri</td><td style="vertical-align:top;">:</td><td><div>/KidsAppManager/default/busca_aluno?c_nome=Arthur&amp;c_matricula=6&amp;c_email=leomanancial%40hotmail.com&amp;c_resp=Leo&amp;c_sala=Amarela&amp;c_cartao=</div></td></tr><tr><td style="font-weight:bold;vertical-align:top;">script_name</td><td style="vertical-align:top;">:</td><td><div></div></td></tr><tr><td style="font-weight:bold;vertical-align:top;">server_name</td><td style="vertical-align:top;">:</td><td><div>Unknow</div></td></tr><tr><td style="font-weight:bold;vertical-align:top;">server_port</td><td style="vertical-align:top;">:</td><td><div>8000</div></td></tr><tr><td style="font-weight:bold;vertical-align:top;">server_protocol</td><td style="vertical-align:top;">:</td><td><div>HTTP/1.1</div></td></tr><tr><td style="font-weight:bold;vertical-align:top;">server_software</td><td style="vertical-align:top;">:</td><td><div>Rocket 1.2.6</div></td></tr><tr><td style="font-weight:bold;vertical-align:top;">web2py_path</td><td style="vertical-align:top;">:</td><td><div>/home/leonardo/Downloads/web2py</div></td></tr><tr><td style="font-weight:bold;vertical-align:top;">web2py_version</td><td style="vertical-align:top;">:</td><td><div>2.16.1-stable+timestamp.2017.11.14.05.54.25</div></td></tr><tr><td style="font-weight:bold;vertical-align:top;">wsgi.errors</td><td style="vertical-align:top;">:</td><td><div>&lt;open file &#x27;&lt;stderr&gt;&#x27;, mode &#x27;w&#x27; at 0x7f26ce2d21e0&gt;</div></td></tr><tr><td style="font-weight:bold;vertical-align:top;">wsgi.file_wrapper</td><td style="vertical-align:top;">:</td><td><div>&lt;class wsgiref.util.FileWrapper at 0x7f26c9cb2258&gt;</div></td></tr><tr><td style="font-weight:bold;vertical-align:top;">wsgi.input</td><td style="vertical-align:top;">:</td><td><div>&lt;socket._fileobject object at 0x7f26b86171d0&gt;</div></td></tr><tr><td style="font-weight:bold;vertical-align:top;">wsgi.multiprocess</td><td style="vertical-align:top;">:</td><td><div>False</div></td></tr><tr><td style="font-weight:bold;vertical-align:top;">wsgi.multithread</td><td style="vertical-align:top;">:</td><td><div>True</div></td></tr><tr><td style="font-weight:bold;vertical-align:top;">wsgi.run_once</td><td style="vertical-align:top;">:</td><td><div>False</div></td></tr><tr><td style="font-weight:bold;vertical-align:top;">wsgi.url_scheme</td><td style="vertical-align:top;">:</td><td><div>http</div></td></tr><tr><td style="font-weight:bold;vertical-align:top;">wsgi.version</td><td style="vertical-align:top;">:</td><td><div><table><tr><td><div>1</div></td></tr><tr><td><div>0</div></td></tr></table></div></td></tr><tr><td style="font-weight:bold;vertical-align:top;">wsgi_errors</td><td style="vertical-align:top;">:</td><td><div>&lt;open file &#x27;&lt;stderr&gt;&#x27;, mode &#x27;w&#x27; at 0x7f26ce2d21e0&gt;</div></td></tr><tr><td style="font-weight:bold;vertical-align:top;">wsgi_file_wrapper</td><td style="vertical-align:top;">:</td><td><div>&lt;class wsgiref.util.FileWrapper at 0x7f26c9cb2258&gt;</div></td></tr><tr><td style="font-weight:bold;vertical-align:top;">wsgi_input</td><td style="vertical-align:top;">:</td><td><div>&lt;socket._fileobject object at 0x7f26b86171d0&gt;</div></td></tr><tr><td style="font-weight:bold;vertical-align:top;">wsgi_multiprocess</td><td style="vertical-align:top;">:</td><td><div>False</div></td></tr><tr><td style="font-weight:bold;vertical-align:top;">wsgi_multithread</td><td style="vertical-align:top;">:</td><td><div>True</div></td></tr><tr><td style="font-weight:bold;vertical-align:top;">wsgi_run_once</td><td style="vertical-align:top;">:</td><td><div>False</div></td></tr><tr><td style="font-weight:bold;vertical-align:top;">wsgi_url_scheme</td><td style="vertical-align:top;">:</td><td><div>http</div></td></tr><tr><td style="font-weight:bold;vertical-align:top;">wsgi_version</td><td style="vertical-align:top;">:</td><td><div><table><tr><td><div>1</div></td></tr><tr><td><div>0</div></td></tr></table></div></td></tr></table></div></td></tr><tr><td style="font-weight:bold;vertical-align:top;">extension</td><td style="vertical-align:top;">:</td><td><div>html</div></td></tr><tr><td style="font-weight:bold;vertical-align:top;">folder</td><td style="vertical-align:top;">:</td><td><div>/home/leonardo/Downloads/web2py/applications/KidsAppManager/</div></td></tr><tr><td style="font-weight:bold;vertical-align:top;">function</td><td style="vertical-align:top;">:</td><td><div>busca_aluno</div></td></tr><tr><td style="font-weight:bold;vertical-align:top;">global_settings</td><td style="vertical-align:top;">:</td><td><div><table><tr><td style="font-weight:bold;vertical-align:top;">app_folders</td><td style="vertical-align:top;">:</td><td><div>set([&#x27;/home/leonardo/Downloads/web2py/applications/KidsAppManager/&#x27;, &#x27;/home/leonardo/Downloads/web2py/applications/admin/&#x27;])</div></td></tr><tr><td style="font-weight:bold;vertical-align:top;">applications_parent</td><td style="vertical-align:top;">:</td><td><div>/home/leonardo/Downloads/web2py</div></td></tr><tr><td style="font-weight:bold;vertical-align:top;">cmd_args</td><td style="vertical-align:top;">:</td><td><div><table></table></div></td></tr><tr><td style="font-weight:bold;vertical-align:top;">cmd_options</td><td style="vertical-align:top;">:</td><td><div>&lt;Values at 0x7f26c9c7c8c0: {&#x27;verbose&#x27;: False, &#x27;ip&#x27;: &#x27;127.0.0.1&#x27;, &#x27;debuglevel&#x27;: 30, &#x27;with_scheduler&#x27;: False, &#x27;shutdown_timeout&#x27;: 5, &#x27;taskbar&#x27;: False, &#x27;with_coverage&#x27;: False, &#x27;pid_filename&#x27;: &#x27;httpserver.pid&#x27;, &#x27;maxthreads&#x27;: None, &#x27;softcron&#x27;: False, &#x27;server_name&#x27;: &#x27;Unknow&#x27;, &#x27;bpython&#x27;: False, &#x27;nogui&#x27;: False, &#x27;port&#x27;: 8000, &#x27;print_errors&#x27;: False, &#x27;extcron&#x27;: False, &#x27;runcron&#x27;: False, &#x27;run_system_tests&#x27;: False, &#x27;test&#x27;: None, &#x27;folder&#x27;: &#x27;/home/leonardo/Downloads/web2py&#x27;, &#x27;config&#x27;: &#x27;&#x27;, &#x27;minthreads&#x27;: None, &#x27;shell&#x27;: None, &#x27;run&#x27;: &#x27;&#x27;, &#x27;log_filename&#x27;: &#x27;httpserver.log&#x27;, &#x27;profiler_dir&#x27;: None, &#x27;args&#x27;: [&#x27;&#x27;], &#x27;socket_timeout&#x27;: 5, &#x27;ssl_ca_certificate&#x27;: None, &#x27;scheduler&#x27;: None, &#x27;interfaces&#x27;: None, &#x27;ssl_private_key&#x27;: &#x27;&#x27;, &#x27;gae&#x27;: None, &#x27;password&#x27;: &#x27;******&#x27;, &#x27;request_queue_size&#x27;: 5, &#x27;ssl_certificate&#x27;: &#x27;&#x27;, &#x27;cronjob&#x27;: False, &#x27;numthreads&#x27;: None, &#x27;quiet&#x27;: False, &#x27;import_models&#x27;: False, &#x27;timeout&#x27;: 10, &#x27;plain&#x27;: False, &#x27;nobanner&#x27;: False}&gt;</div></td></tr><tr><td style="font-weight:bold;vertical-align:top;">db_sessions</td><td style="vertical-align:top;">:</td><td><div>set([])</div></td></tr><tr><td style="font-weight:bold;vertical-align:top;">debugging</td><td style="vertical-align:top;">:</td><td><div>False</div></td></tr><tr><td style="font-weight:bold;vertical-align:top;">gluon_parent</td><td style="vertical-align:top;">:</td><td><div>/home/leonardo/Downloads/web2py</div></td></tr><tr><td style="font-weight:bold;vertical-align:top;">is_jython</td><td style="vertical-align:top;">:</td><td><div>False</div></td></tr><tr><td style="font-weight:bold;vertical-align:top;">is_py2</td><td style="vertical-align:top;">:</td><td><div>True</div></td></tr><tr><td style="font-weight:bold;vertical-align:top;">is_pypy</td><td style="vertical-align:top;">:</td><td><div>False</div></td></tr><tr><td style="font-weight:bold;vertical-align:top;">is_source</td><td style="vertical-align:top;">:</td><td><div>True</div></td></tr><tr><td style="font-weight:bold;vertical-align:top;">local_hosts</td><td style="vertical-align:top;">:</td><td><div><table><tr><td><div>127.0.1.1</div></td></tr><tr><td><div>::1</div></td></tr><tr><td><div>Unknow</div></td></tr><tr><td><div>::ffff:127.0.0.1</div></td></tr><tr><td><div>127.0.0.1</div></td></tr></table></div></td></tr><tr><td style="font-weight:bold;vertical-align:top;">web2py_version</td><td style="vertical-align:top;">:</td><td><div>2.16.1-stable+timestamp.2017.11.14.05.54.25</div></td></tr></table></div></td></tr><tr><td style="font-weight:bold;vertical-align:top;">is_https</td><td style="vertical-align:top;">:</td><td><div>False</div></td></tr><tr><td style="font-weight:bold;vertical-align:top;">is_local</td><td style="vertical-align:top;">:</td><td><div>True</div></td></tr><tr><td style="font-weight:bold;vertical-align:top;">is_restful</td><td style="vertical-align:top;">:</td><td><div>False</div></td></tr><tr><td style="font-weight:bold;vertical-align:top;">is_scheduler</td><td style="vertical-align:top;">:</td><td><div>False</div></td></tr><tr><td style="font-weight:bold;vertical-align:top;">is_shell</td><td style="vertical-align:top;">:</td><td><div>False</div></td></tr><tr><td style="font-weight:bold;vertical-align:top;">now</td><td style="vertical-align:top;">:</td><td><div>datetime.datetime(2018, 6, 21, 15, 28, 43, 742559)</div></td></tr><tr><td style="font-weight:bold;vertical-align:top;">raw_args</td><td style="vertical-align:top;">:</td><td><div></div></td></tr><tr><td style="font-weight:bold;vertical-align:top;">raw_extension</td><td style="vertical-align:top;">:</td><td><div>None</div></td></tr><tr><td style="font-weight:bold;vertical-align:top;">url</td><td style="vertical-align:top;">:</td><td><div>/KidsAppManager/default/busca_aluno</div></td></tr><tr><td style="font-weight:bold;vertical-align:top;">utcnow</td><td style="vertical-align:top;">:</td><td><div>datetime.datetime(2018, 6, 21, 18, 28, 43, 742574)</div></td></tr><tr><td style="font-weight:bold;vertical-align:top;">wsgi</td><td style="vertical-align:top;">:</td><td><div>&lt;gluon.main.LazyWSGI object at 0x7f26b8670250&gt;</div></td></tr></table></div>'
tRp64
sS'frames'
p65
(lp66
(dp67
S'file'
p68
S'/home/leonardo/Downloads/web2py/gluon/restricted.py'
p69
sS'dump'
p70
(dp71
S'environment'
p72
S"{'A': <class 'gluon.html.A'>, 'ANY_OF': <class 'gluon.validators.ANY_OF'>, 'ASSIGNJS': <function ASSIGNJS>, 'AppConfig': <function AppConfig>, 'Auth': <class 'gluon.tools.Auth'>, 'B': <class 'gluon.html.B'>, 'BEAUTIFY': <class 'gluon.html.BEAUTIFY'>, 'BODY': <class 'gluon.html.BODY'>, 'BR': <class 'gluon.html.BR'>, 'BUTTON': <class 'gluon.html.BUTTON'>, ...}"
p73
sS'ccode'
p74
S'<code object <module> at 0x7f26c81072b0, file "/...pplications/KidsAppManager/models/db.py", line 7>'
p75
ssS'lnum'
p76
I219
sS'lines'
p77
(dp78
I214
S'    if environment is None:'
p79
sI215
S'        environment = {}'
p80
sI216
S"    environment['__file__'] = layer"
p81
sI217
S"    environment['__name__'] = '__restricted__'"
p82
sI218
S'    try:'
p83
sI219
S'        exec(ccode, environment)'
p84
sI220
S'    except HTTP:'
p85
sI221
S'        raise'
p86
sI222
S'    except RestrictedError:'
p87
sI223
S'        # do not encapsulate (obfuscate) the original RestrictedError'
p88
ssS'call'
p89
S'(ccode=<code object <module> at 0x7f26c81072b0, file "/...pplications/KidsAppManager/models/db.py", line 7>, environment={\'A\': <class \'gluon.html.A\'>, \'ANY_OF\': <class \'gluon.validators.ANY_OF\'>, \'ASSIGNJS\': <function ASSIGNJS>, \'AppConfig\': <function AppConfig>, \'Auth\': <class \'gluon.tools.Auth\'>, \'B\': <class \'gluon.html.B\'>, \'BEAUTIFY\': <class \'gluon.html.BEAUTIFY\'>, \'BODY\': <class \'gluon.html.BODY\'>, \'BR\': <class \'gluon.html.BR\'>, \'BUTTON\': <class \'gluon.html.BUTTON\'>, ...}, layer=\'/home/leonardo/Downloads/web2py/applications/KidsAppManager/models/db.py\', scode=<code object <module> at 0x7f26c81072b0, file "/...pplications/KidsAppManager/models/db.py", line 7>)'
p90
sS'func'
p91
S'restricted'
p92
sa(dp93
g68
S'/home/leonardo/Downloads/web2py/applications/KidsAppManager/models/db.py'
p94
sg70
(dp95
S'Field'
p96
S"<class 'pydal.objects.Field'>"
p97
sS'label'
p98
S'undefined'
p99
ssg76
I195
sg77
(dp100
I192
S"    Field('cartao',requires=IS_NOT_EMPTY(),label='Cart\xc3\xa3o de entrada'),"
p101
sI193
S"    Field('matricula_sala',db.cadastro,IS_IN_DB(db,'cadastro.sala_matriculado','%(nome_sala)s'),label=T('Sala Matriculado')),"
p102
sI194
S"    Field('presenca','boolean',label=T('Presente?')),"
p103
sI195
S"    Field('cod_presenca', label=('C\xc3\xb3digo da Presen\xc3\xa7a'))"
p104
sI196
S')'
sI197
S''
sI188
S'db.define_table('
p105
sI189
S"    'frequencia',"
p106
sI190
S"    Field('nome',db.cadastro, requires=IS_IN_DB(db,'cadastro.nome_crianca','%(nome_crianca)s'),label='Nome'),"
p107
sI191
S"    Field('data_entrada','datetime'),"
p108
ssg89
S'()'
p109
sg91
S'<module>'
p110
sa(dp111
g68
S'/home/leonardo/Downloads/web2py/gluon/packages/dal/pydal/base.py'
p112
sg70
(dp113
S'fields'
p114
S'(<pydal.objects.Field object>, <pydal.objects.Field object>, <pydal.objects.Field object>, <pydal.objects.Field object>, <pydal.objects.Field object>, <pydal.objects.Field object>)'
p115
sS'self'
p116
S'<DAL uri="mysql:******@localhost/kids2">'
p117
sS'args'
p118
g21
sS'tablename'
p119
S"'frequencia'"
p120
sS'table'
p121
g99
sS'self.lazy_define_table'
p122
S'<bound method DAL.lazy_define_table of <DAL uri="mysql:******@localhost/kids2">>'
p123
ssg76
I586
sg77
(dp124
I581
S'                                  (tablename, invalid_args))'
p125
sI582
S'        if self._lazy_tables and tablename not in self._LAZY_TABLES:'
p126
sI583
S'            self._LAZY_TABLES[tablename] = (tablename, fields, args)'
p127
sI584
S'            table = None'
p128
sI585
S'        else:'
p129
sI586
S'            table = self.lazy_define_table(tablename, *fields, **args)'
p130
sI587
S'        if tablename not in self.tables:'
p131
sI588
S'            self.tables.append(tablename)'
p132
sI589
S'        return table'
p133
sI590
S''
ssg89
S'(self=<DAL uri="mysql:******@localhost/kids2">, tablename=\'frequencia\', *fields=(<pydal.objects.Field object>, <pydal.objects.Field object>, <pydal.objects.Field object>, <pydal.objects.Field object>, <pydal.objects.Field object>, <pydal.objects.Field object>), **args={})'
p134
sg91
S'define_table'
p135
sa(dp136
g68
S'/home/leonardo/Downloads/web2py/gluon/packages/dal/pydal/base.py'
p137
sg70
(dp138
S'polymodel'
p139
S'None'
p140
ssg76
I620
sg77
(dp141
I615
S'            try:'
p142
sI616
S'                GLOBAL_LOCKER.acquire()'
p143
sI617
S'                self._adapter.create_table('
p144
sI618
S'                    table, migrate=migrate,'
p145
sI619
S'                    fake_migrate=fake_migrate,'
p146
sI620
S'                    polymodel=polymodel)'
p147
sI621
S'            finally:'
p148
sI622
S'                GLOBAL_LOCKER.release()'
p149
sI623
S'        else:'
p150
sI624
S'            table._dbt = None'
p151
ssg89
S'(self=<DAL uri="mysql:******@localhost/kids2">, tablename=\'frequencia\', *fields=(<pydal.objects.Field object>, <pydal.objects.Field object>, <pydal.objects.Field object>, <pydal.objects.Field object>, <pydal.objects.Field object>, <pydal.objects.Field object>), **args={})'
p152
sg91
S'lazy_define_table'
p153
sa(dp154
g68
S'/home/leonardo/Downloads/web2py/gluon/packages/dal/pydal/adapters/base.py'
p155
sg70
(dp156
S'self'
p157
S'<pydal.adapters.mysql.MySQL object>'
p158
sS'args'
p159
S'(<Table frequencia (id, nome, data_entrada, cartao, matricula_sala, presenca, cod_presenca)>,)'
p160
sS'self.migrator'
p161
S'<pydal.migrator.Migrator object>'
p162
sS'self.migrator.create_table'
p163
S'<bound method Migrator.create_table of <pydal.migrator.Migrator object>>'
p164
sS'kwargs'
p165
S"{'fake_migrate': False, 'migrate': True, 'polymodel': None}"
p166
ssg76
I797
sg77
(dp167
I800
S'        super(SQLAdapter, self)._drop_table_cleanup(table)'
p168
sI801
S'        if table._dbt:'
p169
sI792
S''
sI793
S'    def bulk_insert(self, table, items):'
p170
sI794
S'        return [self.insert(table, item) for item in items]'
p171
sI795
S''
sI796
S'    def create_table(self, *args, **kwargs):'
p172
sI797
S'        return self.migrator.create_table(*args, **kwargs)'
p173
sI798
S''
sI799
S'    def _drop_table_cleanup(self, table):'
p174
ssg89
S"(self=<pydal.adapters.mysql.MySQL object>, *args=(<Table frequencia (id, nome, data_entrada, cartao, matricula_sala, presenca, cod_presenca)>,), **kwargs={'fake_migrate': False, 'migrate': True, 'polymodel': None})"
p175
sg91
S'create_table'
p176
sa(dp177
g68
S'/home/leonardo/Downloads/web2py/gluon/packages/dal/pydal/migrator.py'
p178
sg70
(dp179
S'query'
p180
S"'CREATE TABLE `frequencia`(\\n    `id` INT AUTO_INC...RY KEY (`id`)\\n) ENGINE=InnoDB CHARACTER SET utf8;'"
p181
sS'self'
p182
S'<pydal.migrator.Migrator object>'
p183
sS'self.adapter'
p184
S'<pydal.adapters.mysql.MySQL object>'
p185
sS'self.adapter.create_sequence_and_triggers'
p186
S'<bound method MySQL.create_sequence_and_triggers of <pydal.adapters.mysql.MySQL object>>'
p187
sS'table'
p188
S'<Table frequencia (id, nome, data_entrada, cartao, matricula_sala, presenca, cod_presenca)>'
p189
ssg76
I277
sg77
(dp190
I272
S'            if table._dbt:'
p191
sI273
S"                self.log('timestamp: %s\\n%s\\n'"
p192
sI274
S'                         % (datetime.datetime.today().isoformat(),'
p193
sI275
S'                            query), table)'
p194
sI276
S'            if not fake_migrate:'
p195
sI277
S'                self.adapter.create_sequence_and_triggers(query, table)'
p196
sI278
S'                db.commit()'
p197
sI279
S'                # Postgres geom fields are added now,'
p198
sI280
S'                # after the table has been created'
p199
sI281
S'                for query in postcreation_fields:'
p200
ssg89
S'(self=<pydal.migrator.Migrator object>, table=<Table frequencia (id, nome, data_entrada, cartao, matricula_sala, presenca, cod_presenca)>, migrate=True, fake_migrate=False, polymodel=None)'
p201
sg91
g176
sa(dp202
g68
S'/home/leonardo/Downloads/web2py/gluon/packages/dal/pydal/adapters/base.py'
p203
sg70
(dp204
S'query'
p205
S"'CREATE TABLE `frequencia`(\\n    `id` INT AUTO_INC...RY KEY (`id`)\\n) ENGINE=InnoDB CHARACTER SET utf8;'"
p206
sS'self'
p207
S'<pydal.adapters.mysql.MySQL object>'
p208
sS'self.execute'
p209
S'<bound method MySQL.wrap of <pydal.adapters.mysql.MySQL object>>'
p210
ssg76
I880
sg77
(dp211
I875
S'    @with_connection'
p212
sI876
S'    def rollback_prepared(self, key):'
p213
sI877
S'        self.connection.rollback()'
p214
sI878
S''
sI879
S'    def create_sequence_and_triggers(self, query, table, **args):'
p215
sI880
S'        self.execute(query)'
p216
sI881
S''
sI882
S'    def sqlsafe_table(self, tablename, original_tablename=None):'
p217
sI883
S'        if original_tablename is not None:'
p218
sI884
S'            return self.dialect.alias(original_tablename, tablename)'
p219
ssg89
S"(self=<pydal.adapters.mysql.MySQL object>, query='CREATE TABLE `frequencia`(\\n    `id` INT AUTO_INC...RY KEY (`id`)\\n) ENGINE=InnoDB CHARACTER SET utf8;', table=<Table frequencia (id, nome, data_entrada, cartao, matricula_sala, presenca, cod_presenca)>, **args={})"
p220
sg91
S'create_sequence_and_triggers'
p221
sa(dp222
g68
S'/home/leonardo/Downloads/web2py/gluon/packages/dal/pydal/adapters/__init__.py'
p223
sg70
(dp224
S'kwargs'
p225
g21
sS'args'
p226
S"(<pydal.adapters.mysql.MySQL object>, 'CREATE TABLE `frequencia`(\\n    `id` INT AUTO_INC...RY KEY (`id`)\\n) ENGINE=InnoDB CHARACTER SET utf8;')"
p227
sS'f'
S'<function execute>'
p228
ssg76
I67
sg77
(dp229
I64
S'            if len(args) > 1:'
p230
sI65
S'                raise ValueError(args[1])'
p231
sI66
S"            raise RuntimeError('no connection available')"
p232
sI67
S'        return f(*args, **kwargs)'
p233
sI68
S'    return wrap'
p234
sI69
S''
sI70
S''
sI71
S'from .base import SQLAdapter, NoSQLAdapter'
p235
sI62
S'    def wrap(*args, **kwargs):'
p236
sI63
S'        if not args[0].connection:'
p237
ssg89
S"(*args=(<pydal.adapters.mysql.MySQL object>, 'CREATE TABLE `frequencia`(\\n    `id` INT AUTO_INC...RY KEY (`id`)\\n) ENGINE=InnoDB CHARACTER SET utf8;'), **kwargs={})"
p238
sg91
S'wrap'
p239
sa(dp240
g68
S'/home/leonardo/Downloads/web2py/gluon/packages/dal/pydal/adapters/base.py'
p241
sg70
(dp242
S'rv'
p243
g99
sS'self'
p244
S'<pydal.adapters.mysql.MySQL object>'
p245
sS'args'
p246
S"('CREATE TABLE `frequencia`(\\n    `id` INT AUTO_INC...RY KEY (`id`)\\n) ENGINE=InnoDB CHARACTER SET utf8;',)"
p247
sS'self.cursor'
p248
S'<gluon.contrib.pymysql.cursors.Cursor object>'
p249
sS'command'
p250
S"'CREATE TABLE `frequencia`(\\n    `id` INT AUTO_INC...RY KEY (`id`)\\n) ENGINE=InnoDB CHARACTER SET utf8;'"
p251
sS'self.cursor.execute'
p252
S'<bound method Cursor.execute of <gluon.contrib.pymysql.cursors.Cursor object>>'
p253
sS'kwargs'
p254
g21
ssg76
I412
sg77
(dp255
I416
S''
sI407
S'    def execute(self, *args, **kwargs):'
p256
sI408
S'        command = self.filter_sql_command(args[0])'
p257
sI409
S'        handlers = self._build_handlers_for_execution()'
p258
sI410
S'        for handler in handlers:'
p259
sI411
S'            handler.before_execute(command)'
p260
sI412
S'        rv = self.cursor.execute(command, *args[1:], **kwargs)'
p261
sI413
S'        for handler in handlers:'
p262
sI414
S'            handler.after_execute(command)'
p263
sI415
S'        return rv'
p264
ssg89
S"(self=<pydal.adapters.mysql.MySQL object>, *args=('CREATE TABLE `frequencia`(\\n    `id` INT AUTO_INC...RY KEY (`id`)\\n) ENGINE=InnoDB CHARACTER SET utf8;',), **kwargs={})"
p265
sg91
S'execute'
p266
sa(dp267
g68
S'/home/leonardo/Downloads/web2py/gluon/contrib/pymysql/cursors.py'
p268
sg70
(dp269
S'query'
p270
S"'CREATE TABLE `frequencia`(\\n    `id` INT AUTO_INC...RY KEY (`id`)\\n) ENGINE=InnoDB CHARACTER SET utf8;'"
p271
sS'self'
p272
S'<gluon.contrib.pymysql.cursors.Cursor object>'
p273
sS'result'
p274
g99
sS'self._query'
p275
S'<bound method Cursor._query of <gluon.contrib.pymysql.cursors.Cursor object>>'
p276
ssg76
I166
sg77
(dp277
I161
S'        while self.nextset():'
p278
sI162
S'            pass'
p279
sI163
S''
sI164
S'        query = self.mogrify(query, args)'
p280
sI165
S''
sI166
S'        result = self._query(query)'
p281
sI167
S'        self._executed = query'
p282
sI168
S'        return result'
p283
sI169
S''
sI170
S'    def executemany(self, query, args):'
p284
ssg89
S"(self=<gluon.contrib.pymysql.cursors.Cursor object>, query='CREATE TABLE `frequencia`(\\n    `id` INT AUTO_INC...RY KEY (`id`)\\n) ENGINE=InnoDB CHARACTER SET utf8;', args=None)"
p285
sg91
g266
sa(dp286
g68
S'/home/leonardo/Downloads/web2py/gluon/contrib/pymysql/cursors.py'
p287
sg70
(dp288
S'q'
S"'CREATE TABLE `frequencia`(\\n    `id` INT AUTO_INC...RY KEY (`id`)\\n) ENGINE=InnoDB CHARACTER SET utf8;'"
p289
sS'conn.query'
p290
S'<bound method Connection.query of <gluon.contrib.pymysql.connections.Connection object>>'
p291
sS'conn'
p292
S'<gluon.contrib.pymysql.connections.Connection object>'
p293
ssg76
I322
sg77
(dp294
I320
S'        conn = self._get_db()'
p295
sI321
S'        self._last_executed = q'
p296
sI322
S'        conn.query(q)'
p297
sI323
S'        self._do_get_result()'
p298
sI324
S'        return self.rowcount'
p299
sI325
S''
sI326
S'    def _do_get_result(self):'
p300
sI317
S'        self.rownumber = r'
p301
sI318
S''
sI319
S'    def _query(self, q):'
p302
ssg89
S"(self=<gluon.contrib.pymysql.cursors.Cursor object>, q='CREATE TABLE `frequencia`(\\n    `id` INT AUTO_INC...RY KEY (`id`)\\n) ENGINE=InnoDB CHARACTER SET utf8;')"
p303
sg91
S'_query'
p304
sa(dp305
g68
S'/home/leonardo/Downloads/web2py/gluon/contrib/pymysql/connections.py'
p306
sg70
(dp307
S'self._read_query_result'
p308
S'<bound method Connection._read_query_result of <...n.contrib.pymysql.connections.Connection object>>'
p309
sS'self'
p310
S'<gluon.contrib.pymysql.connections.Connection object>'
p311
sS'unbuffered'
p312
S'False'
p313
sS'self._affected_rows'
p314
S'0'
ssg76
I835
sg77
(dp315
I832
S'            else:'
p316
sI833
S"                sql = sql.encode(self.encoding, 'surrogateescape')"
p317
sI834
S'        self._execute_command(COMMAND.COM_QUERY, sql)'
p318
sI835
S'        self._affected_rows = self._read_query_result(unbuffered=unbuffered)'
p319
sI836
S'        return self._affected_rows'
p320
sI837
S''
sI838
S'    def next_result(self, unbuffered=False):'
p321
sI839
S'        self._affected_rows = self._read_query_result(unbuffered=unbuffered)'
p322
sI830
S'            if PY2:'
p323
sI831
S'                sql = sql.encode(self.encoding)'
p324
ssg89
S"(self=<gluon.contrib.pymysql.connections.Connection object>, sql='CREATE TABLE `frequencia`(\\n    `id` INT AUTO_INC...RY KEY (`id`)\\n) ENGINE=InnoDB CHARACTER SET utf8;', unbuffered=False)"
p325
sg91
S'query'
p326
sa(dp327
g68
S'/home/leonardo/Downloads/web2py/gluon/contrib/pymysql/connections.py'
p328
sg70
(dp329
S'result.read'
p330
S'<bound method MySQLResult.read of <gluon.contrib.pymysql.connections.MySQLResult object>>'
p331
sS'result'
p332
S'<gluon.contrib.pymysql.connections.MySQLResult object>'
p333
ssg76
I1019
sg77
(dp334
I1014
S'                result.unbuffered_active = False'
p335
sI1015
S'                result.connection = None'
p336
sI1016
S'                raise'
p337
sI1017
S'        else:'
p338
sI1018
S'            result = MySQLResult(self)'
p339
sI1019
S'            result.read()'
p340
sI1020
S'        self._result = result'
p341
sI1021
S'        if result.server_status is not None:'
p342
sI1022
S'            self.server_status = result.server_status'
p343
sI1023
S'        return result.affected_rows'
p344
ssg89
S'(self=<gluon.contrib.pymysql.connections.Connection object>, unbuffered=False)'
p345
sg91
S'_read_query_result'
p346
sa(dp347
g68
S'/home/leonardo/Downloads/web2py/gluon/contrib/pymysql/connections.py'
p348
sg70
(dp349
S'first_packet'
p350
g99
sS'self'
p351
S'<gluon.contrib.pymysql.connections.MySQLResult object>'
p352
sS'self.connection'
p353
S'None'
p354
sS'self.connection._read_packet'
p355
g99
ssg76
I1302
sg77
(dp356
I1297
S'        if self.unbuffered_active:'
p357
sI1298
S'            self._finish_unbuffered_query()'
p358
sI1299
S''
sI1300
S'    def read(self):'
p359
sI1301
S'        try:'
p360
sI1302
S'            first_packet = self.connection._read_packet()'
p361
sI1303
S''
sI1304
S'            if first_packet.is_ok_packet():'
p362
sI1305
S'                self._read_ok_packet(first_packet)'
p363
sI1306
S'            elif first_packet.is_load_local_packet():'
p364
ssg89
S'(self=<gluon.contrib.pymysql.connections.MySQLResult object>)'
p365
sg91
S'read'
p366
sa(dp367
g68
S'/home/leonardo/Downloads/web2py/gluon/contrib/pymysql/connections.py'
p368
sg70
(dp369
S'packet'
p370
S'<gluon.contrib.pymysql.connections.MysqlPacket object>'
p371
sS'packet.check_error'
p372
S'<bound method MysqlPacket.check_error of <gluon.contrib.pymysql.connections.MysqlPacket object>>'
p373
ssg76
I981
sg77
(dp374
I976
S'                continue'
p375
sI977
S'            if bytes_to_read < MAX_PACKET_LEN:'
p376
sI978
S'                break'
p377
sI979
S''
sI980
S'        packet = packet_type(buff, self.encoding)'
p378
sI981
S'        packet.check_error()'
p379
sI982
S'        return packet'
p380
sI983
S''
sI984
S'    def _read_bytes(self, num_bytes):'
p381
sI985
S'        self._sock.settimeout(self._read_timeout)'
p382
ssg89
S"(self=<gluon.contrib.pymysql.connections.Connection object>, packet_type=<class 'gluon.contrib.pymysql.connections.MysqlPacket'>)"
p383
sg91
S'_read_packet'
p384
sa(dp385
g68
S'/home/leonardo/Downloads/web2py/gluon/contrib/pymysql/connections.py'
p386
sg70
(dp387
S'self._data'
p388
S'"\\xff\\x1a\\x04#42S01Table \'frequencia\' already exists"'
p389
sS'self'
p390
S'<gluon.contrib.pymysql.connections.MysqlPacket object>'
p391
sS'global err'
p392
S"<module 'gluon.contrib.pymysql.err' from '/home/.../Downloads/web2py/gluon/contrib/pymysql/err.pyc'>"
p393
sS'err.raise_mysql_exception'
p394
S'<function raise_mysql_exception>'
p395
ssg76
I393
sg77
(dp396
I388
S'        if self.is_error_packet():'
p397
sI389
S'            self.rewind()'
p398
sI390
S'            self.advance(1)  # field_count == error (we already know that)'
p399
sI391
S'            errno = self.read_uint16()'
p400
sI392
S'            if DEBUG: print("errno =", errno)'
p401
sI393
S'            err.raise_mysql_exception(self._data)'
p402
sI394
S''
sI395
S'    def dump(self):'
p403
sI396
S'        dump_packet(self._data)'
p404
sI397
S''
ssg89
S'(self=<gluon.contrib.pymysql.connections.MysqlPacket object>)'
p405
sg91
S'check_error'
p406
sa(dp407
g68
S'/home/leonardo/Downloads/web2py/gluon/contrib/pymysql/err.py'
p408
sg70
(dp409
S'errorclass'
p410
S"<class 'gluon.contrib.pymysql.err.InternalError'>"
p411
sS'errno'
p412
S'1050'
p413
sS'errval'
p414
S'u"Table \'frequencia\' already exists"'
p415
ssg76
I107
sg77
(dp416
I98
S'def raise_mysql_exception(data):'
p417
sI99
S"    errno = struct.unpack('<h', data[1:3])[0]"
p418
sI100
S'    is_41 = data[3:4] == b"#"'
p419
sI101
S'    if is_41:'
p420
sI102
S'        # client protocol 4.1'
p421
sI103
S"        errval = data[9:].decode('utf-8', 'replace')"
p422
sI104
S'    else:'
p423
sI105
S"        errval = data[3:].decode('utf-8', 'replace')"
p424
sI106
S'    errorclass = error_map.get(errno, InternalError)'
p425
sI107
S'    raise errorclass(errno, errval)'
p426
ssg89
S'(data="\\xff\\x1a\\x04#42S01Table \'frequencia\' already exists")'
p427
sg91
S'raise_mysql_exception'
p428
sasS'pyver'
p429
S'Python 2.7.15rc1: /usr/bin/python (prefix: /usr)'
p430
sS'session'
p431
g63
(S's;\x01\x00\x00<div><table><tr><td style="font-weight:bold;vertical-align:top;">last_orderby</td><td style="vertical-align:top;">:</td><td><div>None</div></td></tr><tr><td style="font-weight:bold;vertical-align:top;">last_query</td><td style="vertical-align:top;">:</td><td><div>db.frequencia.id&gt;0</div></td></tr></table></div>'
tRp432
sS'etype'
p433
S"<class 'gluon.contrib.pymysql.err.InternalError'>"
p434
sS'date'
p435
S'Thu Jun 21 15:28:43 2018'
p436
sS'response'
p437
g63
(S's\x06\x1b\x00\x00<div><table><tr><td style="font-weight:bold;vertical-align:top;">body</td><td style="vertical-align:top;">:</td><td><div>&lt;cStringIO.StringO object at 0x7f26b8068148&gt;</div></td></tr><tr><td style="font-weight:bold;vertical-align:top;">cookies</td><td style="vertical-align:top;">:</td><td><div><table><tr><td style="font-weight:bold;vertical-align:top;">session_id_kidsappmanager</td><td style="vertical-align:top;">:</td><td><div>127.0.0.1-733b7e1d-73a5-4403-93ad-d0e72f4ad5f7<table><tr><td style="font-weight:bold;vertical-align:top;">comment</td><td style="vertical-align:top;">:</td><td><div></div></td></tr><tr><td style="font-weight:bold;vertical-align:top;">domain</td><td style="vertical-align:top;">:</td><td><div></div></td></tr><tr><td style="font-weight:bold;vertical-align:top;">expires</td><td style="vertical-align:top;">:</td><td><div></div></td></tr><tr><td style="font-weight:bold;vertical-align:top;">httponly</td><td style="vertical-align:top;">:</td><td><div></div></td></tr><tr><td style="font-weight:bold;vertical-align:top;">max-age</td><td style="vertical-align:top;">:</td><td><div></div></td></tr><tr><td style="font-weight:bold;vertical-align:top;">path</td><td style="vertical-align:top;">:</td><td><div>/</div></td></tr><tr><td style="font-weight:bold;vertical-align:top;">secure</td><td style="vertical-align:top;">:</td><td><div></div></td></tr><tr><td style="font-weight:bold;vertical-align:top;">version</td><td style="vertical-align:top;">:</td><td><div></div></td></tr></table></div></td></tr></table></div></td></tr><tr><td style="font-weight:bold;vertical-align:top;">delimiters</td><td style="vertical-align:top;">:</td><td><div><table><tr><td><div>{{</div></td></tr><tr><td><div>}}</div></td></tr></table></div></td></tr><tr><td style="font-weight:bold;vertical-align:top;">files</td><td style="vertical-align:top;">:</td><td><div><table></table></div></td></tr><tr><td style="font-weight:bold;vertical-align:top;">flash</td><td style="vertical-align:top;">:</td><td><div></div></td></tr><tr><td style="font-weight:bold;vertical-align:top;">form_label_separator</td><td style="vertical-align:top;">:</td><td><div></div></td></tr><tr><td style="font-weight:bold;vertical-align:top;">formstyle</td><td style="vertical-align:top;">:</td><td><div>bootstrap4_inline</div></td></tr><tr><td style="font-weight:bold;vertical-align:top;">generic_patterns</td><td style="vertical-align:top;">:</td><td><div><table><tr><td><div>*</div></td></tr></table></div></td></tr><tr><td style="font-weight:bold;vertical-align:top;">google_analytics_id</td><td style="vertical-align:top;">:</td><td><div>None</div></td></tr><tr><td style="font-weight:bold;vertical-align:top;">headers</td><td style="vertical-align:top;">:</td><td><div><table><tr><td style="font-weight:bold;vertical-align:top;">X-Powered-By</td><td style="vertical-align:top;">:</td><td><div>web2py</div></td></tr></table></div></td></tr><tr><td style="font-weight:bold;vertical-align:top;">menu</td><td style="vertical-align:top;">:</td><td><div><table></table></div></td></tr><tr><td style="font-weight:bold;vertical-align:top;">meta</td><td style="vertical-align:top;">:</td><td><div><table><tr><td style="font-weight:bold;vertical-align:top;">author</td><td style="vertical-align:top;">:</td><td><div>Your Name &lt;you@example.com&gt;</div></td></tr><tr><td style="font-weight:bold;vertical-align:top;">description</td><td style="vertical-align:top;">:</td><td><div>a cool new app</div></td></tr><tr><td style="font-weight:bold;vertical-align:top;">generator</td><td style="vertical-align:top;">:</td><td><div>Web2py Web Framework</div></td></tr><tr><td style="font-weight:bold;vertical-align:top;">keywords</td><td style="vertical-align:top;">:</td><td><div><table><tr><td><div>web2py</div></td></tr><tr><td><div>python</div></td></tr><tr><td><div>framework</div></td></tr></table></div></td></tr></table></div></td></tr><tr><td style="font-weight:bold;vertical-align:top;">models_to_run</td><td style="vertical-align:top;">:</td><td><div><table><tr><td><div>^\\w+\\.py$</div></td></tr><tr><td><div>^default/\\w+\\.py$</div></td></tr><tr><td><div>^default/busca_aluno/\\w+\\.py$</div></td></tr></table></div></td></tr><tr><td style="font-weight:bold;vertical-align:top;">postprocessing</td><td style="vertical-align:top;">:</td><td><div><table></table></div></td></tr><tr><td style="font-weight:bold;vertical-align:top;">session_client</td><td style="vertical-align:top;">:</td><td><div>127.0.0.1</div></td></tr><tr><td style="font-weight:bold;vertical-align:top;">session_cookie_compression_level</td><td style="vertical-align:top;">:</td><td><div>None</div></td></tr><tr><td style="font-weight:bold;vertical-align:top;">session_cookie_expires</td><td style="vertical-align:top;">:</td><td><div>None</div></td></tr><tr><td style="font-weight:bold;vertical-align:top;">session_data_name</td><td style="vertical-align:top;">:</td><td><div>session_data_kidsappmanager</div></td></tr><tr><td style="font-weight:bold;vertical-align:top;">session_file</td><td style="vertical-align:top;">:</td><td><div>&lt;open file &#x27;/home/leonardo/Downloads/web2py/applications/KidsAppManager/sessions/18f/1ed/127.0.0.1-733b7e1d-73a5-4403-93ad-d0e72f4ad5f7&#x27;, mode &#x27;rb+&#x27; at 0x7f26b86fc660&gt;</div></td></tr><tr><td style="font-weight:bold;vertical-align:top;">session_filename</td><td style="vertical-align:top;">:</td><td><div>/home/leonardo/Downloads/web2py/applications/KidsAppManager/sessions/127.0.0.1-733b7e1d-73a5-4403-93ad-d0e72f4ad5f7</div></td></tr><tr><td style="font-weight:bold;vertical-align:top;">session_hash</td><td style="vertical-align:top;">:</td><td><div>e9b4b206f45ff05a225d000d85a94998</div></td></tr><tr><td style="font-weight:bold;vertical-align:top;">session_id</td><td style="vertical-align:top;">:</td><td><div>127.0.0.1-733b7e1d-73a5-4403-93ad-d0e72f4ad5f7</div></td></tr><tr><td style="font-weight:bold;vertical-align:top;">session_id_name</td><td style="vertical-align:top;">:</td><td><div>session_id_kidsappmanager</div></td></tr><tr><td style="font-weight:bold;vertical-align:top;">session_locked</td><td style="vertical-align:top;">:</td><td><div>True</div></td></tr><tr><td style="font-weight:bold;vertical-align:top;">session_masterapp</td><td style="vertical-align:top;">:</td><td><div>KidsAppManager</div></td></tr><tr><td style="font-weight:bold;vertical-align:top;">session_new</td><td style="vertical-align:top;">:</td><td><div>False</div></td></tr><tr><td style="font-weight:bold;vertical-align:top;">session_storage_type</td><td style="vertical-align:top;">:</td><td><div>file</div></td></tr><tr><td style="font-weight:bold;vertical-align:top;">status</td><td style="vertical-align:top;">:</td><td><div>200</div></td></tr><tr><td style="font-weight:bold;vertical-align:top;">view</td><td style="vertical-align:top;">:</td><td><div>default/busca_aluno.html</div></td></tr></table></div>'
tRp438
sS'locals'
p439
(dp440
S'errorclass'
p441
S"<class 'gluon.contrib.pymysql.err.InternalError'>"
p442
sS'errno'
p443
S'1050'
p444
sS'is_41'
p445
S'True'
p446
sS'errval'
p447
S'u"Table \'frequencia\' already exists"'
p448
sS'data'
p449
S'"\\xff\\x1a\\x04#42S01Table \'frequencia\' already exists"'
p450
sssS'traceback'
p451
S'Traceback (most recent call last):\n  File "/home/leonardo/Downloads/web2py/gluon/restricted.py", line 219, in restricted\n    exec(ccode, environment)\n  File "/home/leonardo/Downloads/web2py/applications/KidsAppManager/models/db.py", line 195, in <module>\n    Field(\'cod_presenca\', label=(\'C\xc3\xb3digo da Presen\xc3\xa7a\'))\n  File "/home/leonardo/Downloads/web2py/gluon/packages/dal/pydal/base.py", line 586, in define_table\n    table = self.lazy_define_table(tablename, *fields, **args)\n  File "/home/leonardo/Downloads/web2py/gluon/packages/dal/pydal/base.py", line 620, in lazy_define_table\n    polymodel=polymodel)\n  File "/home/leonardo/Downloads/web2py/gluon/packages/dal/pydal/adapters/base.py", line 797, in create_table\n    return self.migrator.create_table(*args, **kwargs)\n  File "/home/leonardo/Downloads/web2py/gluon/packages/dal/pydal/migrator.py", line 277, in create_table\n    self.adapter.create_sequence_and_triggers(query, table)\n  File "/home/leonardo/Downloads/web2py/gluon/packages/dal/pydal/adapters/base.py", line 880, in create_sequence_and_triggers\n    self.execute(query)\n  File "/home/leonardo/Downloads/web2py/gluon/packages/dal/pydal/adapters/__init__.py", line 67, in wrap\n    return f(*args, **kwargs)\n  File "/home/leonardo/Downloads/web2py/gluon/packages/dal/pydal/adapters/base.py", line 412, in execute\n    rv = self.cursor.execute(command, *args[1:], **kwargs)\n  File "/home/leonardo/Downloads/web2py/gluon/contrib/pymysql/cursors.py", line 166, in execute\n    result = self._query(query)\n  File "/home/leonardo/Downloads/web2py/gluon/contrib/pymysql/cursors.py", line 322, in _query\n    conn.query(q)\n  File "/home/leonardo/Downloads/web2py/gluon/contrib/pymysql/connections.py", line 835, in query\n    self._affected_rows = self._read_query_result(unbuffered=unbuffered)\n  File "/home/leonardo/Downloads/web2py/gluon/contrib/pymysql/connections.py", line 1019, in _read_query_result\n    result.read()\n  File "/home/leonardo/Downloads/web2py/gluon/contrib/pymysql/connections.py", line 1302, in read\n    first_packet = self.connection._read_packet()\n  File "/home/leonardo/Downloads/web2py/gluon/contrib/pymysql/connections.py", line 981, in _read_packet\n    packet.check_error()\n  File "/home/leonardo/Downloads/web2py/gluon/contrib/pymysql/connections.py", line 393, in check_error\n    err.raise_mysql_exception(self._data)\n  File "/home/leonardo/Downloads/web2py/gluon/contrib/pymysql/err.py", line 107, in raise_mysql_exception\n    raise errorclass(errno, errval)\nInternalError: (1050, u"Table \'frequencia\' already exists")\n'
p452
s.