(dp1
S'output'
p2
S'<class \'gluon.contrib.pymysql.err.ProgrammingError\'> (1146, u"Table \'kids2.frequencia\' doesn\'t exist")'
p3
sS'layer'
p4
S'/home/leonardo/Downloads/web2py/applications/KidsAppManager/models/db.py'
p5
sS'code'
p6
S'<code object <module> at 0x7f4b984c74b0, file "/home/leonardo/Downloads/web2py/applications/KidsAppManager/models/db.py", line 7>'
p7
sS'snapshot'
p8
(dp9
S'exception'
p10
(dp11
S'__module__'
p12
S"'gluon.contrib.pymysql.err'"
p13
sS'__getslice__'
p14
S"<method-wrapper '__getslice__' of ProgrammingError object>"
p15
sS'__str__'
p16
S"<method-wrapper '__str__' of ProgrammingError object>"
p17
sS'__reduce__'
p18
S'<built-in method __reduce__ of ProgrammingError object>'
p19
sS'__dict__'
p20
S'{}'
p21
sS'__sizeof__'
p22
S'<built-in method __sizeof__ of ProgrammingError object>'
p23
sS'__weakref__'
p24
S'None'
p25
sS'message'
p26
S"''"
p27
sS'__init__'
p28
S"<method-wrapper '__init__' of ProgrammingError object>"
p29
sS'__setattr__'
p30
S"<method-wrapper '__setattr__' of ProgrammingError object>"
p31
sS'__reduce_ex__'
p32
S'<built-in method __reduce_ex__ of ProgrammingError object>'
p33
sS'__new__'
p34
S'<built-in method __new__ of type object>'
p35
sS'__format__'
p36
S'<built-in method __format__ of ProgrammingError object>'
p37
sS'__class__'
p38
S"<class 'gluon.contrib.pymysql.err.ProgrammingError'>"
p39
sS'__doc__'
p40
S"'Exception raised for programming errors, e.g. ta...t, wrong number\\n    of parameters specified, etc.'"
p41
sS'__getitem__'
p42
S"<method-wrapper '__getitem__' of ProgrammingError object>"
p43
sS'__setstate__'
p44
S'<built-in method __setstate__ of ProgrammingError object>'
p45
sS'__getattribute__'
p46
S"<method-wrapper '__getattribute__' of ProgrammingError object>"
p47
sS'args'
p48
S'(1146, u"Table \'kids2.frequencia\' doesn\'t exist")'
p49
sS'__subclasshook__'
p50
S'<built-in method __subclasshook__ of type object>'
p51
sS'__unicode__'
p52
S'<built-in method __unicode__ of ProgrammingError object>'
p53
sS'__delattr__'
p54
S"<method-wrapper '__delattr__' of ProgrammingError object>"
p55
sS'__repr__'
p56
S"<method-wrapper '__repr__' of ProgrammingError object>"
p57
sS'__hash__'
p58
S"<method-wrapper '__hash__' of ProgrammingError object>"
p59
ssS'evalue'
p60
S'(1146, u"Table \'kids2.frequencia\' doesn\'t exist")'
p61
sS'request'
p62
cgluon.html
XML_unpickle
p63
(S'sVX\x00\x00<div><table><tr><td style="font-weight:bold;vertical-align:top;">ajax</td><td style="vertical-align:top;">:</td><td><div>False</div></td></tr><tr><td style="font-weight:bold;vertical-align:top;">application</td><td style="vertical-align:top;">:</td><td><div>KidsAppManager</div></td></tr><tr><td style="font-weight:bold;vertical-align:top;">args</td><td style="vertical-align:top;">:</td><td><div><table></table></div></td></tr><tr><td style="font-weight:bold;vertical-align:top;">cid</td><td style="vertical-align:top;">:</td><td><div>None</div></td></tr><tr><td style="font-weight:bold;vertical-align:top;">client</td><td style="vertical-align:top;">:</td><td><div>127.0.0.1</div></td></tr><tr><td style="font-weight:bold;vertical-align:top;">controller</td><td style="vertical-align:top;">:</td><td><div>default</div></td></tr><tr><td style="font-weight:bold;vertical-align:top;">cookies</td><td style="vertical-align:top;">:</td><td><div><table><tr><td style="font-weight:bold;vertical-align:top;">session_id_admin</td><td style="vertical-align:top;">:</td><td><div>127.0.0.1-ce796df0-367a-45fc-b21e-84592f3091ae<table><tr><td style="font-weight:bold;vertical-align:top;">comment</td><td style="vertical-align:top;">:</td><td><div></div></td></tr><tr><td style="font-weight:bold;vertical-align:top;">domain</td><td style="vertical-align:top;">:</td><td><div></div></td></tr><tr><td style="font-weight:bold;vertical-align:top;">expires</td><td style="vertical-align:top;">:</td><td><div></div></td></tr><tr><td style="font-weight:bold;vertical-align:top;">httponly</td><td style="vertical-align:top;">:</td><td><div></div></td></tr><tr><td style="font-weight:bold;vertical-align:top;">max-age</td><td style="vertical-align:top;">:</td><td><div></div></td></tr><tr><td style="font-weight:bold;vertical-align:top;">path</td><td style="vertical-align:top;">:</td><td><div></div></td></tr><tr><td style="font-weight:bold;vertical-align:top;">secure</td><td style="vertical-align:top;">:</td><td><div></div></td></tr><tr><td style="font-weight:bold;vertical-align:top;">version</td><td style="vertical-align:top;">:</td><td><div></div></td></tr></table></div></td></tr><tr><td style="font-weight:bold;vertical-align:top;">session_id_kidsappmanager</td><td style="vertical-align:top;">:</td><td><div>127.0.0.1-733b7e1d-73a5-4403-93ad-d0e72f4ad5f7<table><tr><td style="font-weight:bold;vertical-align:top;">comment</td><td style="vertical-align:top;">:</td><td><div></div></td></tr><tr><td style="font-weight:bold;vertical-align:top;">domain</td><td style="vertical-align:top;">:</td><td><div></div></td></tr><tr><td style="font-weight:bold;vertical-align:top;">expires</td><td style="vertical-align:top;">:</td><td><div></div></td></tr><tr><td style="font-weight:bold;vertical-align:top;">httponly</td><td style="vertical-align:top;">:</td><td><div></div></td></tr><tr><td style="font-weight:bold;vertical-align:top;">max-age</td><td style="vertical-align:top;">:</td><td><div></div></td></tr><tr><td style="font-weight:bold;vertical-align:top;">path</td><td style="vertical-align:top;">:</td><td><div></div></td></tr><tr><td style="font-weight:bold;vertical-align:top;">secure</td><td style="vertical-align:top;">:</td><td><div></div></td></tr><tr><td style="font-weight:bold;vertical-align:top;">version</td><td style="vertical-align:top;">:</td><td><div></div></td></tr></table></div></td></tr></table></div></td></tr><tr><td style="font-weight:bold;vertical-align:top;">env</td><td style="vertical-align:top;">:</td><td><div><table><tr><td style="font-weight:bold;vertical-align:top;">HTTP_ACCEPT</td><td style="vertical-align:top;">:</td><td><div>text/html,application/xhtml+xml,application/xml;q=0.9,image/webp,image/apng,*/*;q=0.8</div></td></tr><tr><td style="font-weight:bold;vertical-align:top;">HTTP_ACCEPT_ENCODING</td><td style="vertical-align:top;">:</td><td><div>gzip, deflate, br</div></td></tr><tr><td style="font-weight:bold;vertical-align:top;">HTTP_ACCEPT_LANGUAGE</td><td style="vertical-align:top;">:</td><td><div>pt-BR,pt;q=0.9,en-US;q=0.8,en;q=0.7</div></td></tr><tr><td style="font-weight:bold;vertical-align:top;">HTTP_CONNECTION</td><td style="vertical-align:top;">:</td><td><div>keep-alive</div></td></tr><tr><td style="font-weight:bold;vertical-align:top;">HTTP_COOKIE</td><td style="vertical-align:top;">:</td><td><div>session_id_admin=127.0.0.1-ce796df0-367a-45fc-b21e-84592f3091ae; session_id_kidsappmanager=127.0.0.1-733b7e1d-73a5-4403-93ad-d0e72f4ad5f7</div></td></tr><tr><td style="font-weight:bold;vertical-align:top;">HTTP_HOST</td><td style="vertical-align:top;">:</td><td><div>127.0.0.1:8000</div></td></tr><tr><td style="font-weight:bold;vertical-align:top;">HTTP_REFERER</td><td style="vertical-align:top;">:</td><td><div>http://127.0.0.1:8000/KidsAppManager/default/busca_aluno?c_nome=Arthur&amp;c_matricula=6&amp;c_email=leomanancial%40hotmail.com&amp;c_resp=Leo&amp;c_sala=Amarela&amp;c_cartao=</div></td></tr><tr><td style="font-weight:bold;vertical-align:top;">HTTP_UPGRADE_INSECURE_REQUESTS</td><td style="vertical-align:top;">:</td><td><div>1</div></td></tr><tr><td style="font-weight:bold;vertical-align:top;">HTTP_USER_AGENT</td><td style="vertical-align:top;">:</td><td><div>Mozilla/5.0 (X11; Linux x86_64) AppleWebKit/537.36 (KHTML, like Gecko) Chrome/67.0.3396.87 Safari/537.36</div></td></tr><tr><td style="font-weight:bold;vertical-align:top;">PATH_INFO</td><td style="vertical-align:top;">:</td><td><div>/KidsAppManager/default/index</div></td></tr><tr><td style="font-weight:bold;vertical-align:top;">QUERY_STRING</td><td style="vertical-align:top;">:</td><td><div></div></td></tr><tr><td style="font-weight:bold;vertical-align:top;">REMOTE_ADDR</td><td style="vertical-align:top;">:</td><td><div>127.0.0.1</div></td></tr><tr><td style="font-weight:bold;vertical-align:top;">REMOTE_PORT</td><td style="vertical-align:top;">:</td><td><div>57924</div></td></tr><tr><td style="font-weight:bold;vertical-align:top;">REQUEST_METHOD</td><td style="vertical-align:top;">:</td><td><div>GET</div></td></tr><tr><td style="font-weight:bold;vertical-align:top;">SCRIPT_NAME</td><td style="vertical-align:top;">:</td><td><div></div></td></tr><tr><td style="font-weight:bold;vertical-align:top;">SERVER_NAME</td><td style="vertical-align:top;">:</td><td><div>Unknow</div></td></tr><tr><td style="font-weight:bold;vertical-align:top;">SERVER_PORT</td><td style="vertical-align:top;">:</td><td><div>8000</div></td></tr><tr><td style="font-weight:bold;vertical-align:top;">SERVER_PROTOCOL</td><td style="vertical-align:top;">:</td><td><div>HTTP/1.1</div></td></tr><tr><td style="font-weight:bold;vertical-align:top;">SERVER_SOFTWARE</td><td style="vertical-align:top;">:</td><td><div>Rocket 1.2.6</div></td></tr><tr><td style="font-weight:bold;vertical-align:top;">app_folders</td><td style="vertical-align:top;">:</td><td><div>set([&#x27;/home/leonardo/Downloads/web2py/applications/KidsAppManager/&#x27;, &#x27;/home/leonardo/Downloads/web2py/applications/admin/&#x27;])</div></td></tr><tr><td style="font-weight:bold;vertical-align:top;">applications_parent</td><td style="vertical-align:top;">:</td><td><div>/home/leonardo/Downloads/web2py</div></td></tr><tr><td style="font-weight:bold;vertical-align:top;">cmd_args</td><td style="vertical-align:top;">:</td><td><div><table></table></div></td></tr><tr><td style="font-weight:bold;vertical-align:top;">cmd_options</td><td style="vertical-align:top;">:</td><td><div>&lt;Values at 0x7f4b9a7de8c0: {&#x27;verbose&#x27;: False, &#x27;ip&#x27;: &#x27;127.0.0.1&#x27;, &#x27;debuglevel&#x27;: 30, &#x27;with_scheduler&#x27;: False, &#x27;shutdown_timeout&#x27;: 5, &#x27;taskbar&#x27;: False, &#x27;with_coverage&#x27;: False, &#x27;pid_filename&#x27;: &#x27;httpserver.pid&#x27;, &#x27;maxthreads&#x27;: None, &#x27;softcron&#x27;: False, &#x27;server_name&#x27;: &#x27;Unknow&#x27;, &#x27;bpython&#x27;: False, &#x27;nogui&#x27;: False, &#x27;port&#x27;: 8000, &#x27;print_errors&#x27;: False, &#x27;extcron&#x27;: False, &#x27;runcron&#x27;: False, &#x27;run_system_tests&#x27;: False, &#x27;test&#x27;: None, &#x27;folder&#x27;: &#x27;/home/leonardo/Downloads/web2py&#x27;, &#x27;config&#x27;: &#x27;&#x27;, &#x27;minthreads&#x27;: None, &#x27;shell&#x27;: None, &#x27;run&#x27;: &#x27;&#x27;, &#x27;log_filename&#x27;: &#x27;httpserver.log&#x27;, &#x27;profiler_dir&#x27;: None, &#x27;args&#x27;: [&#x27;&#x27;], &#x27;socket_timeout&#x27;: 5, &#x27;ssl_ca_certificate&#x27;: None, &#x27;scheduler&#x27;: None, &#x27;interfaces&#x27;: None, &#x27;ssl_private_key&#x27;: &#x27;&#x27;, &#x27;gae&#x27;: None, &#x27;password&#x27;: &#x27;******&#x27;, &#x27;request_queue_size&#x27;: 5, &#x27;ssl_certificate&#x27;: &#x27;&#x27;, &#x27;cronjob&#x27;: False, &#x27;numthreads&#x27;: None, &#x27;quiet&#x27;: False, &#x27;import_models&#x27;: False, &#x27;timeout&#x27;: 10, &#x27;plain&#x27;: False, &#x27;nobanner&#x27;: False}&gt;</div></td></tr><tr><td style="font-weight:bold;vertical-align:top;">db_sessions</td><td style="vertical-align:top;">:</td><td><div>set([])</div></td></tr><tr><td style="font-weight:bold;vertical-align:top;">debugging</td><td style="vertical-align:top;">:</td><td><div>False</div></td></tr><tr><td style="font-weight:bold;vertical-align:top;">gluon_parent</td><td style="vertical-align:top;">:</td><td><div>/home/leonardo/Downloads/web2py</div></td></tr><tr><td style="font-weight:bold;vertical-align:top;">http_accept</td><td style="vertical-align:top;">:</td><td><div>text/html,application/xhtml+xml,application/xml;q=0.9,image/webp,image/apng,*/*;q=0.8</div></td></tr><tr><td style="font-weight:bold;vertical-align:top;">http_accept_encoding</td><td style="vertical-align:top;">:</td><td><div>gzip, deflate, br</div></td></tr><tr><td style="font-weight:bold;vertical-align:top;">http_accept_language</td><td style="vertical-align:top;">:</td><td><div>pt-BR,pt;q=0.9,en-US;q=0.8,en;q=0.7</div></td></tr><tr><td style="font-weight:bold;vertical-align:top;">http_connection</td><td style="vertical-align:top;">:</td><td><div>keep-alive</div></td></tr><tr><td style="font-weight:bold;vertical-align:top;">http_cookie</td><td style="vertical-align:top;">:</td><td><div>session_id_admin=127.0.0.1-ce796df0-367a-45fc-b21e-84592f3091ae; session_id_kidsappmanager=127.0.0.1-733b7e1d-73a5-4403-93ad-d0e72f4ad5f7</div></td></tr><tr><td style="font-weight:bold;vertical-align:top;">http_host</td><td style="vertical-align:top;">:</td><td><div>127.0.0.1:8000</div></td></tr><tr><td style="font-weight:bold;vertical-align:top;">http_referer</td><td style="vertical-align:top;">:</td><td><div>http://127.0.0.1:8000/KidsAppManager/default/busca_aluno?c_nome=Arthur&amp;c_matricula=6&amp;c_email=leomanancial%40hotmail.com&amp;c_resp=Leo&amp;c_sala=Amarela&amp;c_cartao=</div></td></tr><tr><td style="font-weight:bold;vertical-align:top;">http_upgrade_insecure_requests</td><td style="vertical-align:top;">:</td><td><div>1</div></td></tr><tr><td style="font-weight:bold;vertical-align:top;">http_user_agent</td><td style="vertical-align:top;">:</td><td><div>Mozilla/5.0 (X11; Linux x86_64) AppleWebKit/537.36 (KHTML, like Gecko) Chrome/67.0.3396.87 Safari/537.36</div></td></tr><tr><td style="font-weight:bold;vertical-align:top;">is_jython</td><td style="vertical-align:top;">:</td><td><div>False</div></td></tr><tr><td style="font-weight:bold;vertical-align:top;">is_py2</td><td style="vertical-align:top;">:</td><td><div>True</div></td></tr><tr><td style="font-weight:bold;vertical-align:top;">is_pypy</td><td style="vertical-align:top;">:</td><td><div>False</div></td></tr><tr><td style="font-weight:bold;vertical-align:top;">is_source</td><td style="vertical-align:top;">:</td><td><div>True</div></td></tr><tr><td style="font-weight:bold;vertical-align:top;">local_hosts</td><td style="vertical-align:top;">:</td><td><div><table><tr><td><div>127.0.1.1</div></td></tr><tr><td><div>::1</div></td></tr><tr><td><div>Unknow</div></td></tr><tr><td><div>::ffff:127.0.0.1</div></td></tr><tr><td><div>127.0.0.1</div></td></tr></table></div></td></tr><tr><td style="font-weight:bold;vertical-align:top;">path_info</td><td style="vertical-align:top;">:</td><td><div>/KidsAppManager/default/index</div></td></tr><tr><td style="font-weight:bold;vertical-align:top;">query_string</td><td style="vertical-align:top;">:</td><td><div></div></td></tr><tr><td style="font-weight:bold;vertical-align:top;">remote_addr</td><td style="vertical-align:top;">:</td><td><div>127.0.0.1</div></td></tr><tr><td style="font-weight:bold;vertical-align:top;">remote_port</td><td style="vertical-align:top;">:</td><td><div>57924</div></td></tr><tr><td style="font-weight:bold;vertical-align:top;">request_method</td><td style="vertical-align:top;">:</td><td><div>GET</div></td></tr><tr><td style="font-weight:bold;vertical-align:top;">request_uri</td><td style="vertical-align:top;">:</td><td><div>/KidsAppManager/default/index</div></td></tr><tr><td style="font-weight:bold;vertical-align:top;">script_name</td><td style="vertical-align:top;">:</td><td><div></div></td></tr><tr><td style="font-weight:bold;vertical-align:top;">server_name</td><td style="vertical-align:top;">:</td><td><div>Unknow</div></td></tr><tr><td style="font-weight:bold;vertical-align:top;">server_port</td><td style="vertical-align:top;">:</td><td><div>8000</div></td></tr><tr><td style="font-weight:bold;vertical-align:top;">server_protocol</td><td style="vertical-align:top;">:</td><td><div>HTTP/1.1</div></td></tr><tr><td style="font-weight:bold;vertical-align:top;">server_software</td><td style="vertical-align:top;">:</td><td><div>Rocket 1.2.6</div></td></tr><tr><td style="font-weight:bold;vertical-align:top;">web2py_path</td><td style="vertical-align:top;">:</td><td><div>/home/leonardo/Downloads/web2py</div></td></tr><tr><td style="font-weight:bold;vertical-align:top;">web2py_version</td><td style="vertical-align:top;">:</td><td><div>2.16.1-stable+timestamp.2017.11.14.05.54.25</div></td></tr><tr><td style="font-weight:bold;vertical-align:top;">wsgi.errors</td><td style="vertical-align:top;">:</td><td><div>&lt;open file &#x27;&lt;stderr&gt;&#x27;, mode &#x27;w&#x27; at 0x7f4b9ee341e0&gt;</div></td></tr><tr><td style="font-weight:bold;vertical-align:top;">wsgi.file_wrapper</td><td style="vertical-align:top;">:</td><td><div>&lt;class wsgiref.util.FileWrapper at 0x7f4b9a814258&gt;</div></td></tr><tr><td style="font-weight:bold;vertical-align:top;">wsgi.input</td><td style="vertical-align:top;">:</td><td><div>&lt;socket._fileobject object at 0x7f4b887e6d50&gt;</div></td></tr><tr><td style="font-weight:bold;vertical-align:top;">wsgi.multiprocess</td><td style="vertical-align:top;">:</td><td><div>False</div></td></tr><tr><td style="font-weight:bold;vertical-align:top;">wsgi.multithread</td><td style="vertical-align:top;">:</td><td><div>True</div></td></tr><tr><td style="font-weight:bold;vertical-align:top;">wsgi.run_once</td><td style="vertical-align:top;">:</td><td><div>False</div></td></tr><tr><td style="font-weight:bold;vertical-align:top;">wsgi.url_scheme</td><td style="vertical-align:top;">:</td><td><div>http</div></td></tr><tr><td style="font-weight:bold;vertical-align:top;">wsgi.version</td><td style="vertical-align:top;">:</td><td><div><table><tr><td><div>1</div></td></tr><tr><td><div>0</div></td></tr></table></div></td></tr><tr><td style="font-weight:bold;vertical-align:top;">wsgi_errors</td><td style="vertical-align:top;">:</td><td><div>&lt;open file &#x27;&lt;stderr&gt;&#x27;, mode &#x27;w&#x27; at 0x7f4b9ee341e0&gt;</div></td></tr><tr><td style="font-weight:bold;vertical-align:top;">wsgi_file_wrapper</td><td style="vertical-align:top;">:</td><td><div>&lt;class wsgiref.util.FileWrapper at 0x7f4b9a814258&gt;</div></td></tr><tr><td style="font-weight:bold;vertical-align:top;">wsgi_input</td><td style="vertical-align:top;">:</td><td><div>&lt;socket._fileobject object at 0x7f4b887e6d50&gt;</div></td></tr><tr><td style="font-weight:bold;vertical-align:top;">wsgi_multiprocess</td><td style="vertical-align:top;">:</td><td><div>False</div></td></tr><tr><td style="font-weight:bold;vertical-align:top;">wsgi_multithread</td><td style="vertical-align:top;">:</td><td><div>True</div></td></tr><tr><td style="font-weight:bold;vertical-align:top;">wsgi_run_once</td><td style="vertical-align:top;">:</td><td><div>False</div></td></tr><tr><td style="font-weight:bold;vertical-align:top;">wsgi_url_scheme</td><td style="vertical-align:top;">:</td><td><div>http</div></td></tr><tr><td style="font-weight:bold;vertical-align:top;">wsgi_version</td><td style="vertical-align:top;">:</td><td><div><table><tr><td><div>1</div></td></tr><tr><td><div>0</div></td></tr></table></div></td></tr></table></div></td></tr><tr><td style="font-weight:bold;vertical-align:top;">extension</td><td style="vertical-align:top;">:</td><td><div>html</div></td></tr><tr><td style="font-weight:bold;vertical-align:top;">folder</td><td style="vertical-align:top;">:</td><td><div>/home/leonardo/Downloads/web2py/applications/KidsAppManager/</div></td></tr><tr><td style="font-weight:bold;vertical-align:top;">function</td><td style="vertical-align:top;">:</td><td><div>index</div></td></tr><tr><td style="font-weight:bold;vertical-align:top;">global_settings</td><td style="vertical-align:top;">:</td><td><div><table><tr><td style="font-weight:bold;vertical-align:top;">app_folders</td><td style="vertical-align:top;">:</td><td><div>set([&#x27;/home/leonardo/Downloads/web2py/applications/KidsAppManager/&#x27;, &#x27;/home/leonardo/Downloads/web2py/applications/admin/&#x27;])</div></td></tr><tr><td style="font-weight:bold;vertical-align:top;">applications_parent</td><td style="vertical-align:top;">:</td><td><div>/home/leonardo/Downloads/web2py</div></td></tr><tr><td style="font-weight:bold;vertical-align:top;">cmd_args</td><td style="vertical-align:top;">:</td><td><div><table></table></div></td></tr><tr><td style="font-weight:bold;vertical-align:top;">cmd_options</td><td style="vertical-align:top;">:</td><td><div>&lt;Values at 0x7f4b9a7de8c0: {&#x27;verbose&#x27;: False, &#x27;ip&#x27;: &#x27;127.0.0.1&#x27;, &#x27;debuglevel&#x27;: 30, &#x27;with_scheduler&#x27;: False, &#x27;shutdown_timeout&#x27;: 5, &#x27;taskbar&#x27;: False, &#x27;with_coverage&#x27;: False, &#x27;pid_filename&#x27;: &#x27;httpserver.pid&#x27;, &#x27;maxthreads&#x27;: None, &#x27;softcron&#x27;: False, &#x27;server_name&#x27;: &#x27;Unknow&#x27;, &#x27;bpython&#x27;: False, &#x27;nogui&#x27;: False, &#x27;port&#x27;: 8000, &#x27;print_errors&#x27;: False, &#x27;extcron&#x27;: False, &#x27;runcron&#x27;: False, &#x27;run_system_tests&#x27;: False, &#x27;test&#x27;: None, &#x27;folder&#x27;: &#x27;/home/leonardo/Downloads/web2py&#x27;, &#x27;config&#x27;: &#x27;&#x27;, &#x27;minthreads&#x27;: None, &#x27;shell&#x27;: None, &#x27;run&#x27;: &#x27;&#x27;, &#x27;log_filename&#x27;: &#x27;httpserver.log&#x27;, &#x27;profiler_dir&#x27;: None, &#x27;args&#x27;: [&#x27;&#x27;], &#x27;socket_timeout&#x27;: 5, &#x27;ssl_ca_certificate&#x27;: None, &#x27;scheduler&#x27;: None, &#x27;interfaces&#x27;: None, &#x27;ssl_private_key&#x27;: &#x27;&#x27;, &#x27;gae&#x27;: None, &#x27;password&#x27;: &#x27;******&#x27;, &#x27;request_queue_size&#x27;: 5, &#x27;ssl_certificate&#x27;: &#x27;&#x27;, &#x27;cronjob&#x27;: False, &#x27;numthreads&#x27;: None, &#x27;quiet&#x27;: False, &#x27;import_models&#x27;: False, &#x27;timeout&#x27;: 10, &#x27;plain&#x27;: False, &#x27;nobanner&#x27;: False}&gt;</div></td></tr><tr><td style="font-weight:bold;vertical-align:top;">db_sessions</td><td style="vertical-align:top;">:</td><td><div>set([])</div></td></tr><tr><td style="font-weight:bold;vertical-align:top;">debugging</td><td style="vertical-align:top;">:</td><td><div>False</div></td></tr><tr><td style="font-weight:bold;vertical-align:top;">gluon_parent</td><td style="vertical-align:top;">:</td><td><div>/home/leonardo/Downloads/web2py</div></td></tr><tr><td style="font-weight:bold;vertical-align:top;">is_jython</td><td style="vertical-align:top;">:</td><td><div>False</div></td></tr><tr><td style="font-weight:bold;vertical-align:top;">is_py2</td><td style="vertical-align:top;">:</td><td><div>True</div></td></tr><tr><td style="font-weight:bold;vertical-align:top;">is_pypy</td><td style="vertical-align:top;">:</td><td><div>False</div></td></tr><tr><td style="font-weight:bold;vertical-align:top;">is_source</td><td style="vertical-align:top;">:</td><td><div>True</div></td></tr><tr><td style="font-weight:bold;vertical-align:top;">local_hosts</td><td style="vertical-align:top;">:</td><td><div><table><tr><td><div>127.0.1.1</div></td></tr><tr><td><div>::1</div></td></tr><tr><td><div>Unknow</div></td></tr><tr><td><div>::ffff:127.0.0.1</div></td></tr><tr><td><div>127.0.0.1</div></td></tr></table></div></td></tr><tr><td style="font-weight:bold;vertical-align:top;">web2py_version</td><td style="vertical-align:top;">:</td><td><div>2.16.1-stable+timestamp.2017.11.14.05.54.25</div></td></tr></table></div></td></tr><tr><td style="font-weight:bold;vertical-align:top;">is_https</td><td style="vertical-align:top;">:</td><td><div>False</div></td></tr><tr><td style="font-weight:bold;vertical-align:top;">is_local</td><td style="vertical-align:top;">:</td><td><div>True</div></td></tr><tr><td style="font-weight:bold;vertical-align:top;">is_restful</td><td style="vertical-align:top;">:</td><td><div>False</div></td></tr><tr><td style="font-weight:bold;vertical-align:top;">is_scheduler</td><td style="vertical-align:top;">:</td><td><div>False</div></td></tr><tr><td style="font-weight:bold;vertical-align:top;">is_shell</td><td style="vertical-align:top;">:</td><td><div>False</div></td></tr><tr><td style="font-weight:bold;vertical-align:top;">now</td><td style="vertical-align:top;">:</td><td><div>datetime.datetime(2018, 6, 21, 16, 1, 30, 645772)</div></td></tr><tr><td style="font-weight:bold;vertical-align:top;">raw_args</td><td style="vertical-align:top;">:</td><td><div></div></td></tr><tr><td style="font-weight:bold;vertical-align:top;">raw_extension</td><td style="vertical-align:top;">:</td><td><div>None</div></td></tr><tr><td style="font-weight:bold;vertical-align:top;">url</td><td style="vertical-align:top;">:</td><td><div>/KidsAppManager/default/index</div></td></tr><tr><td style="font-weight:bold;vertical-align:top;">utcnow</td><td style="vertical-align:top;">:</td><td><div>datetime.datetime(2018, 6, 21, 19, 1, 30, 645788)</div></td></tr><tr><td style="font-weight:bold;vertical-align:top;">wsgi</td><td style="vertical-align:top;">:</td><td><div>&lt;gluon.main.LazyWSGI object at 0x7f4b9806ac50&gt;</div></td></tr></table></div>'
tRp64
sS'frames'
p65
(lp66
(dp67
S'file'
p68
S'/home/leonardo/Downloads/web2py/gluon/restricted.py'
p69
sS'dump'
p70
(dp71
S'environment'
p72
S"{'A': <class 'gluon.html.A'>, 'ANY_OF': <class 'gluon.validators.ANY_OF'>, 'ASSIGNJS': <function ASSIGNJS>, 'AppConfig': <function AppConfig>, 'Auth': <class 'gluon.tools.Auth'>, 'B': <class 'gluon.html.B'>, 'BEAUTIFY': <class 'gluon.html.BEAUTIFY'>, 'BODY': <class 'gluon.html.BODY'>, 'BR': <class 'gluon.html.BR'>, 'BUTTON': <class 'gluon.html.BUTTON'>, ...}"
p73
sS'ccode'
p74
S'<code object <module> at 0x7f4b984c74b0, file "/...pplications/KidsAppManager/models/db.py", line 7>'
p75
ssS'lnum'
p76
I219
sS'lines'
p77
(dp78
I214
S'    if environment is None:'
p79
sI215
S'        environment = {}'
p80
sI216
S"    environment['__file__'] = layer"
p81
sI217
S"    environment['__name__'] = '__restricted__'"
p82
sI218
S'    try:'
p83
sI219
S'        exec(ccode, environment)'
p84
sI220
S'    except HTTP:'
p85
sI221
S'        raise'
p86
sI222
S'    except RestrictedError:'
p87
sI223
S'        # do not encapsulate (obfuscate) the original RestrictedError'
p88
ssS'call'
p89
S'(ccode=<code object <module> at 0x7f4b984c74b0, file "/...pplications/KidsAppManager/models/db.py", line 7>, environment={\'A\': <class \'gluon.html.A\'>, \'ANY_OF\': <class \'gluon.validators.ANY_OF\'>, \'ASSIGNJS\': <function ASSIGNJS>, \'AppConfig\': <function AppConfig>, \'Auth\': <class \'gluon.tools.Auth\'>, \'B\': <class \'gluon.html.B\'>, \'BEAUTIFY\': <class \'gluon.html.BEAUTIFY\'>, \'BODY\': <class \'gluon.html.BODY\'>, \'BR\': <class \'gluon.html.BR\'>, \'BUTTON\': <class \'gluon.html.BUTTON\'>, ...}, layer=\'/home/leonardo/Downloads/web2py/applications/KidsAppManager/models/db.py\', scode=<code object <module> at 0x7f4b984c74b0, file "/...pplications/KidsAppManager/models/db.py", line 7>)'
p90
sS'func'
p91
S'restricted'
p92
sa(dp93
g68
S'/home/leonardo/Downloads/web2py/applications/KidsAppManager/models/db.py'
p94
sg70
(dp95
S'Field'
p96
S"<class 'pydal.objects.Field'>"
p97
sS'label'
p98
S'undefined'
p99
ssg76
I195
sg77
(dp100
I192
S"    Field('cartao',requires=IS_NOT_EMPTY(),label='Cart\xc3\xa3o de entrada'),"
p101
sI193
S"    Field('matricula_sala',db.cadastro,IS_IN_DB(db,'cadastro.sala_matriculado','%(nome_sala)s'),label=T('Sala Matriculado')),"
p102
sI194
S"    Field('presenca','boolean',label=T('Presente?')),"
p103
sI195
S"    Field('cod_presenca', label=('C\xc3\xb3digo da Presen\xc3\xa7a'))"
p104
sI196
S')'
sI197
S''
sI188
S'db.define_table('
p105
sI189
S"    'frequencia',"
p106
sI190
S"    Field('nome_presenca',db.cadastro, requires=IS_IN_DB(db,'cadastro.nome_crianca','%(nome_crianca)s'),label='Nome'),"
p107
sI191
S"    Field('data_entrada','datetime'),"
p108
ssg89
S'()'
p109
sg91
S'<module>'
p110
sa(dp111
g68
S'/home/leonardo/Downloads/web2py/gluon/packages/dal/pydal/base.py'
p112
sg70
(dp113
S'fields'
p114
S'(<pydal.objects.Field object>, <pydal.objects.Field object>, <pydal.objects.Field object>, <pydal.objects.Field object>, <pydal.objects.Field object>, <pydal.objects.Field object>)'
p115
sS'self'
p116
S'<DAL uri="mysql:******@localhost/kids2">'
p117
sS'args'
p118
g21
sS'tablename'
p119
S"'frequencia'"
p120
sS'table'
p121
g99
sS'self.lazy_define_table'
p122
S'<bound method DAL.lazy_define_table of <DAL uri="mysql:******@localhost/kids2">>'
p123
ssg76
I586
sg77
(dp124
I581
S'                                  (tablename, invalid_args))'
p125
sI582
S'        if self._lazy_tables and tablename not in self._LAZY_TABLES:'
p126
sI583
S'            self._LAZY_TABLES[tablename] = (tablename, fields, args)'
p127
sI584
S'            table = None'
p128
sI585
S'        else:'
p129
sI586
S'            table = self.lazy_define_table(tablename, *fields, **args)'
p130
sI587
S'        if tablename not in self.tables:'
p131
sI588
S'            self.tables.append(tablename)'
p132
sI589
S'        return table'
p133
sI590
S''
ssg89
S'(self=<DAL uri="mysql:******@localhost/kids2">, tablename=\'frequencia\', *fields=(<pydal.objects.Field object>, <pydal.objects.Field object>, <pydal.objects.Field object>, <pydal.objects.Field object>, <pydal.objects.Field object>, <pydal.objects.Field object>), **args={})'
p134
sg91
S'define_table'
p135
sa(dp136
g68
S'/home/leonardo/Downloads/web2py/gluon/packages/dal/pydal/base.py'
p137
sg70
(dp138
S'polymodel'
p139
S'None'
p140
ssg76
I620
sg77
(dp141
I615
S'            try:'
p142
sI616
S'                GLOBAL_LOCKER.acquire()'
p143
sI617
S'                self._adapter.create_table('
p144
sI618
S'                    table, migrate=migrate,'
p145
sI619
S'                    fake_migrate=fake_migrate,'
p146
sI620
S'                    polymodel=polymodel)'
p147
sI621
S'            finally:'
p148
sI622
S'                GLOBAL_LOCKER.release()'
p149
sI623
S'        else:'
p150
sI624
S'            table._dbt = None'
p151
ssg89
S'(self=<DAL uri="mysql:******@localhost/kids2">, tablename=\'frequencia\', *fields=(<pydal.objects.Field object>, <pydal.objects.Field object>, <pydal.objects.Field object>, <pydal.objects.Field object>, <pydal.objects.Field object>, <pydal.objects.Field object>), **args={})'
p152
sg91
S'lazy_define_table'
p153
sa(dp154
g68
S'/home/leonardo/Downloads/web2py/gluon/packages/dal/pydal/adapters/base.py'
p155
sg70
(dp156
S'self'
p157
S'<pydal.adapters.mysql.MySQL object>'
p158
sS'args'
p159
S'(<Table frequencia (id, nome_presenca, data_entrada, cartao, matricula_sala, presenca, cod_presenca)>,)'
p160
sS'self.migrator'
p161
S'<pydal.migrator.Migrator object>'
p162
sS'self.migrator.create_table'
p163
S'<bound method Migrator.create_table of <pydal.migrator.Migrator object>>'
p164
sS'kwargs'
p165
S"{'fake_migrate': False, 'migrate': True, 'polymodel': None}"
p166
ssg76
I797
sg77
(dp167
I800
S'        super(SQLAdapter, self)._drop_table_cleanup(table)'
p168
sI801
S'        if table._dbt:'
p169
sI792
S''
sI793
S'    def bulk_insert(self, table, items):'
p170
sI794
S'        return [self.insert(table, item) for item in items]'
p171
sI795
S''
sI796
S'    def create_table(self, *args, **kwargs):'
p172
sI797
S'        return self.migrator.create_table(*args, **kwargs)'
p173
sI798
S''
sI799
S'    def _drop_table_cleanup(self, table):'
p174
ssg89
S"(self=<pydal.adapters.mysql.MySQL object>, *args=(<Table frequencia (id, nome_presenca, data_entrada, cartao, matricula_sala, presenca, cod_presenca)>,), **kwargs={'fake_migrate': False, 'migrate': True, 'polymodel': None})"
p175
sg91
S'create_table'
p176
sa(dp177
g68
S'/home/leonardo/Downloads/web2py/gluon/packages/dal/pydal/migrator.py'
p178
sg70
(dp179
S'fake_migrate'
p180
S'False'
p181
ssg76
I314
sg77
(dp182
I309
S'            if sql_fields != sql_fields_old:'
p183
sI310
S'                self.migrate_table('
p184
sI311
S'                    table,'
p185
sI312
S'                    sql_fields, sql_fields_old,'
p186
sI313
S'                    sql_fields_aux, None,'
p187
sI314
S'                    fake_migrate=fake_migrate'
p188
sI315
S'                    )'
p189
sI316
S'        return query'
p190
sI317
S''
sI318
S'    def _fix(self, item):'
p191
ssg89
S'(self=<pydal.migrator.Migrator object>, table=<Table frequencia (id, nome_presenca, data_entrada, cartao, matricula_sala, presenca, cod_presenca)>, migrate=True, fake_migrate=False, polymodel=None)'
p192
sg91
g176
sa(dp193
g68
S'/home/leonardo/Downloads/web2py/gluon/packages/dal/pydal/migrator.py'
p194
sg70
(dp195
S'self'
p196
S'<pydal.migrator.Migrator object>'
p197
sS'self.adapter.execute'
p198
S'<bound method MySQL.wrap of <pydal.adapters.mysql.MySQL object>>'
p199
sS'self.adapter'
p200
S'<pydal.adapters.mysql.MySQL object>'
p201
sS'sub_query'
p202
S"'ALTER TABLE `frequencia` ADD `nome_presenca` INT...) REFERENCES `cadastro` (`id`) ON DELETE CASCADE;'"
p203
ssg76
I447
sg77
(dp204
I448
S'                        # Caveat: mysql, oracle and firebird'
p205
sI449
S'                        # do not allow multiple alter table'
p206
sI450
S'                        # in one transaction so we must commit'
p207
sI451
S'                        # partial transactions and'
p208
sI442
S'                    if fake_migrate:'
p209
sI443
S'                        if db._adapter.commit_on_alter_table:'
p210
sI444
S'                            self.save_dbt(table, sql_fields_current)'
p211
sI445
S"                        self.log('faked!\\n', table)"
p212
sI446
S'                    else:'
p213
sI447
S'                        self.adapter.execute(sub_query)'
p214
ssg89
S"(self=<pydal.migrator.Migrator object>, table=<Table frequencia (id, nome_presenca, data_entrada, cartao, matricula_sala, presenca, cod_presenca)>, sql_fields={'cartao': {'length': 512, 'notnull': False, 'raw_rname': 'cartao', 'rname': '`cartao`', 'sortable': 4, 'sql': 'VARCHAR(512)', 'type': 'string', 'unique': False}, 'cod_presenca': {'length': 512, 'notnull': False, 'raw_rname': 'cod_presenca', 'rname': '`cod_presenca`', 'sortable': 7, 'sql': 'VARCHAR(512)', 'type': 'string', 'unique': False}, 'data_entrada': {'length': 512, 'notnull': False, 'raw_rname': 'data_entrada', 'rname': '`data_entrada`', 'sortable': 3, 'sql': 'DATETIME', 'type': 'datetime', 'unique': False}, 'id': {'length': 512, 'notnull': False, 'raw_rname': 'id', 'rname': '`id`', 'sortable': 1, 'sql': 'INT AUTO_INCREMENT NOT NULL', 'type': 'id', 'unique': False}, 'matricula_sala': {'length': <gluon.validators.IS_IN_DB object>, 'notnull': False, 'raw_rname': 'matricula_sala', 'rname': '`matricula_sala`', 'sortable': 5, 'sql': 'INT  , INDEX `matricula_sala__idx` (`matricula_s...`) REFERENCES `cadastro` (`id`) ON DELETE CASCADE', 'type': 'reference cadastro', 'unique': False}, 'nome_presenca': {'length': 512, 'notnull': False, 'raw_rname': 'nome_presenca', 'rname': '`nome_presenca`', 'sortable': 2, 'sql': 'INT  , INDEX `nome_presenca__idx` (`nome_presenc...`) REFERENCES `cadastro` (`id`) ON DELETE CASCADE', 'type': 'reference cadastro', 'unique': False}, 'presenca': {'length': 512, 'notnull': False, 'raw_rname': 'presenca', 'rname': '`presenca`', 'sortable': 6, 'sql': 'CHAR(1)', 'type': 'boolean', 'unique': False}}, sql_fields_old={'cartao': {'length': 512, 'notnull': False, 'raw_rname': 'cartao', 'rname': '`cartao`', 'sortable': 4, 'sql': 'VARCHAR(512)', 'type': 'string', 'unique': False}, 'cod_presenca': {'length': 512, 'notnull': False, 'raw_rname': 'cod_presenca', 'rname': '`cod_presenca`', 'sortable': 7, 'sql': 'VARCHAR(512)', 'type': 'string', 'unique': False}, 'data_entrada': {'length': 512, 'notnull': False, 'raw_rname': 'data_entrada', 'rname': '`data_entrada`', 'sortable': 3, 'sql': 'DATETIME', 'type': 'datetime', 'unique': False}, 'id': {'length': 512, 'notnull': False, 'raw_rname': 'id', 'rname': '`id`', 'sortable': 1, 'sql': 'INT AUTO_INCREMENT NOT NULL', 'type': 'id', 'unique': False}, 'matricula_sala': {'length': <gluon.validators.IS_IN_DB object>, 'notnull': False, 'raw_rname': 'matricula_sala', 'rname': '`matricula_sala`', 'sortable': 5, 'sql': 'INT  , INDEX `matricula_sala__idx` (`matricula_s...`) REFERENCES `cadastro` (`id`) ON DELETE CASCADE', 'type': 'reference cadastro', 'unique': False}, 'nome': {'length': 512, 'notnull': False, 'raw_rname': 'nome', 'rname': '`nome`', 'sortable': 2, 'sql': 'INT  , INDEX `nome__idx` (`nome`), FOREIGN KEY (...`) REFERENCES `cadastro` (`id`) ON DELETE CASCADE', 'type': 'reference cadastro', 'unique': False}, 'presenca': {'length': 512, 'notnull': False, 'raw_rname': 'presenca', 'rname': '`presenca`', 'sortable': 6, 'sql': 'CHAR(1)', 'type': 'boolean', 'unique': False}}, sql_fields_aux={'cartao': {'sql': 'VARCHAR(512)'}, 'cod_presenca': {'sql': 'VARCHAR(512)'}, 'data_entrada': {'sql': 'DATETIME'}, 'id': {'sql': 'INT AUTO_INCREMENT NOT NULL'}, 'matricula_sala': {'sql': 'INT  , INDEX `matricula_sala__idx` (`matricula_s...`) REFERENCES `cadastro` (`id`) ON DELETE CASCADE'}, 'nome_presenca': {'sql': 'INT  , INDEX `nome_presenca__idx` (`nome_presenc...`) REFERENCES `cadastro` (`id`) ON DELETE CASCADE'}, 'presenca': {'sql': 'CHAR(1)'}}, logfile=None, fake_migrate=False)"
p215
sg91
S'migrate_table'
p216
sa(dp217
g68
S'/home/leonardo/Downloads/web2py/gluon/packages/dal/pydal/adapters/__init__.py'
p218
sg70
(dp219
S'kwargs'
p220
g21
sS'args'
p221
S"(<pydal.adapters.mysql.MySQL object>, 'ALTER TABLE `frequencia` ADD `nome_presenca` INT...) REFERENCES `cadastro` (`id`) ON DELETE CASCADE;')"
p222
sS'f'
S'<function execute>'
p223
ssg76
I67
sg77
(dp224
I64
S'            if len(args) > 1:'
p225
sI65
S'                raise ValueError(args[1])'
p226
sI66
S"            raise RuntimeError('no connection available')"
p227
sI67
S'        return f(*args, **kwargs)'
p228
sI68
S'    return wrap'
p229
sI69
S''
sI70
S''
sI71
S'from .base import SQLAdapter, NoSQLAdapter'
p230
sI62
S'    def wrap(*args, **kwargs):'
p231
sI63
S'        if not args[0].connection:'
p232
ssg89
S"(*args=(<pydal.adapters.mysql.MySQL object>, 'ALTER TABLE `frequencia` ADD `nome_presenca` INT...) REFERENCES `cadastro` (`id`) ON DELETE CASCADE;'), **kwargs={})"
p233
sg91
S'wrap'
p234
sa(dp235
g68
S'/home/leonardo/Downloads/web2py/gluon/packages/dal/pydal/adapters/base.py'
p236
sg70
(dp237
S'rv'
p238
g99
sS'self'
p239
S'<pydal.adapters.mysql.MySQL object>'
p240
sS'args'
p241
S"('ALTER TABLE `frequencia` ADD `nome_presenca` INT...) REFERENCES `cadastro` (`id`) ON DELETE CASCADE;',)"
p242
sS'self.cursor'
p243
S'<gluon.contrib.pymysql.cursors.Cursor object>'
p244
sS'command'
p245
S"'ALTER TABLE `frequencia` ADD `nome_presenca` INT...) REFERENCES `cadastro` (`id`) ON DELETE CASCADE;'"
p246
sS'self.cursor.execute'
p247
S'<bound method Cursor.execute of <gluon.contrib.pymysql.cursors.Cursor object>>'
p248
sS'kwargs'
p249
g21
ssg76
I412
sg77
(dp250
I416
S''
sI407
S'    def execute(self, *args, **kwargs):'
p251
sI408
S'        command = self.filter_sql_command(args[0])'
p252
sI409
S'        handlers = self._build_handlers_for_execution()'
p253
sI410
S'        for handler in handlers:'
p254
sI411
S'            handler.before_execute(command)'
p255
sI412
S'        rv = self.cursor.execute(command, *args[1:], **kwargs)'
p256
sI413
S'        for handler in handlers:'
p257
sI414
S'            handler.after_execute(command)'
p258
sI415
S'        return rv'
p259
ssg89
S"(self=<pydal.adapters.mysql.MySQL object>, *args=('ALTER TABLE `frequencia` ADD `nome_presenca` INT...) REFERENCES `cadastro` (`id`) ON DELETE CASCADE;',), **kwargs={})"
p260
sg91
S'execute'
p261
sa(dp262
g68
S'/home/leonardo/Downloads/web2py/gluon/contrib/pymysql/cursors.py'
p263
sg70
(dp264
S'query'
p265
S"'ALTER TABLE `frequencia` ADD `nome_presenca` INT...) REFERENCES `cadastro` (`id`) ON DELETE CASCADE;'"
p266
sS'self'
p267
S'<gluon.contrib.pymysql.cursors.Cursor object>'
p268
sS'result'
p269
g99
sS'self._query'
p270
S'<bound method Cursor._query of <gluon.contrib.pymysql.cursors.Cursor object>>'
p271
ssg76
I166
sg77
(dp272
I161
S'        while self.nextset():'
p273
sI162
S'            pass'
p274
sI163
S''
sI164
S'        query = self.mogrify(query, args)'
p275
sI165
S''
sI166
S'        result = self._query(query)'
p276
sI167
S'        self._executed = query'
p277
sI168
S'        return result'
p278
sI169
S''
sI170
S'    def executemany(self, query, args):'
p279
ssg89
S"(self=<gluon.contrib.pymysql.cursors.Cursor object>, query='ALTER TABLE `frequencia` ADD `nome_presenca` INT...) REFERENCES `cadastro` (`id`) ON DELETE CASCADE;', args=None)"
p280
sg91
g261
sa(dp281
g68
S'/home/leonardo/Downloads/web2py/gluon/contrib/pymysql/cursors.py'
p282
sg70
(dp283
S'q'
S"'ALTER TABLE `frequencia` ADD `nome_presenca` INT...) REFERENCES `cadastro` (`id`) ON DELETE CASCADE;'"
p284
sS'conn.query'
p285
S'<bound method Connection.query of <gluon.contrib.pymysql.connections.Connection object>>'
p286
sS'conn'
p287
S'<gluon.contrib.pymysql.connections.Connection object>'
p288
ssg76
I322
sg77
(dp289
I320
S'        conn = self._get_db()'
p290
sI321
S'        self._last_executed = q'
p291
sI322
S'        conn.query(q)'
p292
sI323
S'        self._do_get_result()'
p293
sI324
S'        return self.rowcount'
p294
sI325
S''
sI326
S'    def _do_get_result(self):'
p295
sI317
S'        self.rownumber = r'
p296
sI318
S''
sI319
S'    def _query(self, q):'
p297
ssg89
S"(self=<gluon.contrib.pymysql.cursors.Cursor object>, q='ALTER TABLE `frequencia` ADD `nome_presenca` INT...) REFERENCES `cadastro` (`id`) ON DELETE CASCADE;')"
p298
sg91
S'_query'
p299
sa(dp300
g68
S'/home/leonardo/Downloads/web2py/gluon/contrib/pymysql/connections.py'
p301
sg70
(dp302
S'self._read_query_result'
p303
S'<bound method Connection._read_query_result of <...n.contrib.pymysql.connections.Connection object>>'
p304
sS'self'
p305
S'<gluon.contrib.pymysql.connections.Connection object>'
p306
sS'unbuffered'
p307
g181
sS'self._affected_rows'
p308
S'0'
ssg76
I835
sg77
(dp309
I832
S'            else:'
p310
sI833
S"                sql = sql.encode(self.encoding, 'surrogateescape')"
p311
sI834
S'        self._execute_command(COMMAND.COM_QUERY, sql)'
p312
sI835
S'        self._affected_rows = self._read_query_result(unbuffered=unbuffered)'
p313
sI836
S'        return self._affected_rows'
p314
sI837
S''
sI838
S'    def next_result(self, unbuffered=False):'
p315
sI839
S'        self._affected_rows = self._read_query_result(unbuffered=unbuffered)'
p316
sI830
S'            if PY2:'
p317
sI831
S'                sql = sql.encode(self.encoding)'
p318
ssg89
S"(self=<gluon.contrib.pymysql.connections.Connection object>, sql='ALTER TABLE `frequencia` ADD `nome_presenca` INT...) REFERENCES `cadastro` (`id`) ON DELETE CASCADE;', unbuffered=False)"
p319
sg91
S'query'
p320
sa(dp321
g68
S'/home/leonardo/Downloads/web2py/gluon/contrib/pymysql/connections.py'
p322
sg70
(dp323
S'result.read'
p324
S'<bound method MySQLResult.read of <gluon.contrib.pymysql.connections.MySQLResult object>>'
p325
sS'result'
p326
S'<gluon.contrib.pymysql.connections.MySQLResult object>'
p327
ssg76
I1019
sg77
(dp328
I1014
S'                result.unbuffered_active = False'
p329
sI1015
S'                result.connection = None'
p330
sI1016
S'                raise'
p331
sI1017
S'        else:'
p332
sI1018
S'            result = MySQLResult(self)'
p333
sI1019
S'            result.read()'
p334
sI1020
S'        self._result = result'
p335
sI1021
S'        if result.server_status is not None:'
p336
sI1022
S'            self.server_status = result.server_status'
p337
sI1023
S'        return result.affected_rows'
p338
ssg89
S'(self=<gluon.contrib.pymysql.connections.Connection object>, unbuffered=False)'
p339
sg91
S'_read_query_result'
p340
sa(dp341
g68
S'/home/leonardo/Downloads/web2py/gluon/contrib/pymysql/connections.py'
p342
sg70
(dp343
S'first_packet'
p344
g99
sS'self'
p345
S'<gluon.contrib.pymysql.connections.MySQLResult object>'
p346
sS'self.connection'
p347
S'None'
p348
sS'self.connection._read_packet'
p349
g99
ssg76
I1302
sg77
(dp350
I1297
S'        if self.unbuffered_active:'
p351
sI1298
S'            self._finish_unbuffered_query()'
p352
sI1299
S''
sI1300
S'    def read(self):'
p353
sI1301
S'        try:'
p354
sI1302
S'            first_packet = self.connection._read_packet()'
p355
sI1303
S''
sI1304
S'            if first_packet.is_ok_packet():'
p356
sI1305
S'                self._read_ok_packet(first_packet)'
p357
sI1306
S'            elif first_packet.is_load_local_packet():'
p358
ssg89
S'(self=<gluon.contrib.pymysql.connections.MySQLResult object>)'
p359
sg91
S'read'
p360
sa(dp361
g68
S'/home/leonardo/Downloads/web2py/gluon/contrib/pymysql/connections.py'
p362
sg70
(dp363
S'packet'
p364
S'<gluon.contrib.pymysql.connections.MysqlPacket object>'
p365
sS'packet.check_error'
p366
S'<bound method MysqlPacket.check_error of <gluon.contrib.pymysql.connections.MysqlPacket object>>'
p367
ssg76
I981
sg77
(dp368
I976
S'                continue'
p369
sI977
S'            if bytes_to_read < MAX_PACKET_LEN:'
p370
sI978
S'                break'
p371
sI979
S''
sI980
S'        packet = packet_type(buff, self.encoding)'
p372
sI981
S'        packet.check_error()'
p373
sI982
S'        return packet'
p374
sI983
S''
sI984
S'    def _read_bytes(self, num_bytes):'
p375
sI985
S'        self._sock.settimeout(self._read_timeout)'
p376
ssg89
S"(self=<gluon.contrib.pymysql.connections.Connection object>, packet_type=<class 'gluon.contrib.pymysql.connections.MysqlPacket'>)"
p377
sg91
S'_read_packet'
p378
sa(dp379
g68
S'/home/leonardo/Downloads/web2py/gluon/contrib/pymysql/connections.py'
p380
sg70
(dp381
S'self._data'
p382
S'"\\xffz\\x04#42S02Table \'kids2.frequencia\' doesn\'t exist"'
p383
sS'self'
p384
S'<gluon.contrib.pymysql.connections.MysqlPacket object>'
p385
sS'global err'
p386
S"<module 'gluon.contrib.pymysql.err' from '/home/.../Downloads/web2py/gluon/contrib/pymysql/err.pyc'>"
p387
sS'err.raise_mysql_exception'
p388
S'<function raise_mysql_exception>'
p389
ssg76
I393
sg77
(dp390
I388
S'        if self.is_error_packet():'
p391
sI389
S'            self.rewind()'
p392
sI390
S'            self.advance(1)  # field_count == error (we already know that)'
p393
sI391
S'            errno = self.read_uint16()'
p394
sI392
S'            if DEBUG: print("errno =", errno)'
p395
sI393
S'            err.raise_mysql_exception(self._data)'
p396
sI394
S''
sI395
S'    def dump(self):'
p397
sI396
S'        dump_packet(self._data)'
p398
sI397
S''
ssg89
S'(self=<gluon.contrib.pymysql.connections.MysqlPacket object>)'
p399
sg91
S'check_error'
p400
sa(dp401
g68
S'/home/leonardo/Downloads/web2py/gluon/contrib/pymysql/err.py'
p402
sg70
(dp403
S'errorclass'
p404
S"<class 'gluon.contrib.pymysql.err.ProgrammingError'>"
p405
sS'errno'
p406
S'1146'
p407
sS'errval'
p408
S'u"Table \'kids2.frequencia\' doesn\'t exist"'
p409
ssg76
I107
sg77
(dp410
I98
S'def raise_mysql_exception(data):'
p411
sI99
S"    errno = struct.unpack('<h', data[1:3])[0]"
p412
sI100
S'    is_41 = data[3:4] == b"#"'
p413
sI101
S'    if is_41:'
p414
sI102
S'        # client protocol 4.1'
p415
sI103
S"        errval = data[9:].decode('utf-8', 'replace')"
p416
sI104
S'    else:'
p417
sI105
S"        errval = data[3:].decode('utf-8', 'replace')"
p418
sI106
S'    errorclass = error_map.get(errno, InternalError)'
p419
sI107
S'    raise errorclass(errno, errval)'
p420
ssg89
S'(data="\\xffz\\x04#42S02Table \'kids2.frequencia\' doesn\'t exist")'
p421
sg91
S'raise_mysql_exception'
p422
sasS'pyver'
p423
S'Python 2.7.15rc1: /usr/bin/python (prefix: /usr)'
p424
sS'session'
p425
g63
(S'sJ\x01\x00\x00<div><table><tr><td style="font-weight:bold;vertical-align:top;">last_orderby</td><td style="vertical-align:top;">:</td><td><div>~db.frequencia.nome</div></td></tr><tr><td style="font-weight:bold;vertical-align:top;">last_query</td><td style="vertical-align:top;">:</td><td><div>db.frequencia.id&gt;0</div></td></tr></table></div>'
tRp426
sS'etype'
p427
S"<class 'gluon.contrib.pymysql.err.ProgrammingError'>"
p428
sS'date'
p429
S'Thu Jun 21 16:01:30 2018'
p430
sS'response'
p431
g63
(S's\xfa\x1a\x00\x00<div><table><tr><td style="font-weight:bold;vertical-align:top;">body</td><td style="vertical-align:top;">:</td><td><div>&lt;cStringIO.StringO object at 0x7f4b9806cc00&gt;</div></td></tr><tr><td style="font-weight:bold;vertical-align:top;">cookies</td><td style="vertical-align:top;">:</td><td><div><table><tr><td style="font-weight:bold;vertical-align:top;">session_id_kidsappmanager</td><td style="vertical-align:top;">:</td><td><div>127.0.0.1-733b7e1d-73a5-4403-93ad-d0e72f4ad5f7<table><tr><td style="font-weight:bold;vertical-align:top;">comment</td><td style="vertical-align:top;">:</td><td><div></div></td></tr><tr><td style="font-weight:bold;vertical-align:top;">domain</td><td style="vertical-align:top;">:</td><td><div></div></td></tr><tr><td style="font-weight:bold;vertical-align:top;">expires</td><td style="vertical-align:top;">:</td><td><div></div></td></tr><tr><td style="font-weight:bold;vertical-align:top;">httponly</td><td style="vertical-align:top;">:</td><td><div></div></td></tr><tr><td style="font-weight:bold;vertical-align:top;">max-age</td><td style="vertical-align:top;">:</td><td><div></div></td></tr><tr><td style="font-weight:bold;vertical-align:top;">path</td><td style="vertical-align:top;">:</td><td><div>/</div></td></tr><tr><td style="font-weight:bold;vertical-align:top;">secure</td><td style="vertical-align:top;">:</td><td><div></div></td></tr><tr><td style="font-weight:bold;vertical-align:top;">version</td><td style="vertical-align:top;">:</td><td><div></div></td></tr></table></div></td></tr></table></div></td></tr><tr><td style="font-weight:bold;vertical-align:top;">delimiters</td><td style="vertical-align:top;">:</td><td><div><table><tr><td><div>{{</div></td></tr><tr><td><div>}}</div></td></tr></table></div></td></tr><tr><td style="font-weight:bold;vertical-align:top;">files</td><td style="vertical-align:top;">:</td><td><div><table></table></div></td></tr><tr><td style="font-weight:bold;vertical-align:top;">flash</td><td style="vertical-align:top;">:</td><td><div></div></td></tr><tr><td style="font-weight:bold;vertical-align:top;">form_label_separator</td><td style="vertical-align:top;">:</td><td><div></div></td></tr><tr><td style="font-weight:bold;vertical-align:top;">formstyle</td><td style="vertical-align:top;">:</td><td><div>bootstrap4_inline</div></td></tr><tr><td style="font-weight:bold;vertical-align:top;">generic_patterns</td><td style="vertical-align:top;">:</td><td><div><table><tr><td><div>*</div></td></tr></table></div></td></tr><tr><td style="font-weight:bold;vertical-align:top;">google_analytics_id</td><td style="vertical-align:top;">:</td><td><div>None</div></td></tr><tr><td style="font-weight:bold;vertical-align:top;">headers</td><td style="vertical-align:top;">:</td><td><div><table><tr><td style="font-weight:bold;vertical-align:top;">X-Powered-By</td><td style="vertical-align:top;">:</td><td><div>web2py</div></td></tr></table></div></td></tr><tr><td style="font-weight:bold;vertical-align:top;">menu</td><td style="vertical-align:top;">:</td><td><div><table></table></div></td></tr><tr><td style="font-weight:bold;vertical-align:top;">meta</td><td style="vertical-align:top;">:</td><td><div><table><tr><td style="font-weight:bold;vertical-align:top;">author</td><td style="vertical-align:top;">:</td><td><div>Your Name &lt;you@example.com&gt;</div></td></tr><tr><td style="font-weight:bold;vertical-align:top;">description</td><td style="vertical-align:top;">:</td><td><div>a cool new app</div></td></tr><tr><td style="font-weight:bold;vertical-align:top;">generator</td><td style="vertical-align:top;">:</td><td><div>Web2py Web Framework</div></td></tr><tr><td style="font-weight:bold;vertical-align:top;">keywords</td><td style="vertical-align:top;">:</td><td><div><table><tr><td><div>web2py</div></td></tr><tr><td><div>python</div></td></tr><tr><td><div>framework</div></td></tr></table></div></td></tr></table></div></td></tr><tr><td style="font-weight:bold;vertical-align:top;">models_to_run</td><td style="vertical-align:top;">:</td><td><div><table><tr><td><div>^\\w+\\.py$</div></td></tr><tr><td><div>^default/\\w+\\.py$</div></td></tr><tr><td><div>^default/index/\\w+\\.py$</div></td></tr></table></div></td></tr><tr><td style="font-weight:bold;vertical-align:top;">postprocessing</td><td style="vertical-align:top;">:</td><td><div><table></table></div></td></tr><tr><td style="font-weight:bold;vertical-align:top;">session_client</td><td style="vertical-align:top;">:</td><td><div>127.0.0.1</div></td></tr><tr><td style="font-weight:bold;vertical-align:top;">session_cookie_compression_level</td><td style="vertical-align:top;">:</td><td><div>None</div></td></tr><tr><td style="font-weight:bold;vertical-align:top;">session_cookie_expires</td><td style="vertical-align:top;">:</td><td><div>None</div></td></tr><tr><td style="font-weight:bold;vertical-align:top;">session_data_name</td><td style="vertical-align:top;">:</td><td><div>session_data_kidsappmanager</div></td></tr><tr><td style="font-weight:bold;vertical-align:top;">session_file</td><td style="vertical-align:top;">:</td><td><div>&lt;open file &#x27;/home/leonardo/Downloads/web2py/applications/KidsAppManager/sessions/18f/1ed/127.0.0.1-733b7e1d-73a5-4403-93ad-d0e72f4ad5f7&#x27;, mode &#x27;rb+&#x27; at 0x7f4b887c9db0&gt;</div></td></tr><tr><td style="font-weight:bold;vertical-align:top;">session_filename</td><td style="vertical-align:top;">:</td><td><div>/home/leonardo/Downloads/web2py/applications/KidsAppManager/sessions/127.0.0.1-733b7e1d-73a5-4403-93ad-d0e72f4ad5f7</div></td></tr><tr><td style="font-weight:bold;vertical-align:top;">session_hash</td><td style="vertical-align:top;">:</td><td><div>20f8f6286eeee950d6668a6622e931d9</div></td></tr><tr><td style="font-weight:bold;vertical-align:top;">session_id</td><td style="vertical-align:top;">:</td><td><div>127.0.0.1-733b7e1d-73a5-4403-93ad-d0e72f4ad5f7</div></td></tr><tr><td style="font-weight:bold;vertical-align:top;">session_id_name</td><td style="vertical-align:top;">:</td><td><div>session_id_kidsappmanager</div></td></tr><tr><td style="font-weight:bold;vertical-align:top;">session_locked</td><td style="vertical-align:top;">:</td><td><div>True</div></td></tr><tr><td style="font-weight:bold;vertical-align:top;">session_masterapp</td><td style="vertical-align:top;">:</td><td><div>KidsAppManager</div></td></tr><tr><td style="font-weight:bold;vertical-align:top;">session_new</td><td style="vertical-align:top;">:</td><td><div>False</div></td></tr><tr><td style="font-weight:bold;vertical-align:top;">session_storage_type</td><td style="vertical-align:top;">:</td><td><div>file</div></td></tr><tr><td style="font-weight:bold;vertical-align:top;">status</td><td style="vertical-align:top;">:</td><td><div>200</div></td></tr><tr><td style="font-weight:bold;vertical-align:top;">view</td><td style="vertical-align:top;">:</td><td><div>default/index.html</div></td></tr></table></div>'
tRp432
sS'locals'
p433
(dp434
S'errorclass'
p435
S"<class 'gluon.contrib.pymysql.err.ProgrammingError'>"
p436
sS'errno'
p437
S'1146'
p438
sS'is_41'
p439
S'True'
p440
sS'errval'
p441
S'u"Table \'kids2.frequencia\' doesn\'t exist"'
p442
sS'data'
p443
S'"\\xffz\\x04#42S02Table \'kids2.frequencia\' doesn\'t exist"'
p444
sssS'traceback'
p445
S'Traceback (most recent call last):\n  File "/home/leonardo/Downloads/web2py/gluon/restricted.py", line 219, in restricted\n    exec(ccode, environment)\n  File "/home/leonardo/Downloads/web2py/applications/KidsAppManager/models/db.py", line 195, in <module>\n    Field(\'cod_presenca\', label=(\'C\xc3\xb3digo da Presen\xc3\xa7a\'))\n  File "/home/leonardo/Downloads/web2py/gluon/packages/dal/pydal/base.py", line 586, in define_table\n    table = self.lazy_define_table(tablename, *fields, **args)\n  File "/home/leonardo/Downloads/web2py/gluon/packages/dal/pydal/base.py", line 620, in lazy_define_table\n    polymodel=polymodel)\n  File "/home/leonardo/Downloads/web2py/gluon/packages/dal/pydal/adapters/base.py", line 797, in create_table\n    return self.migrator.create_table(*args, **kwargs)\n  File "/home/leonardo/Downloads/web2py/gluon/packages/dal/pydal/migrator.py", line 314, in create_table\n    fake_migrate=fake_migrate\n  File "/home/leonardo/Downloads/web2py/gluon/packages/dal/pydal/migrator.py", line 447, in migrate_table\n    self.adapter.execute(sub_query)\n  File "/home/leonardo/Downloads/web2py/gluon/packages/dal/pydal/adapters/__init__.py", line 67, in wrap\n    return f(*args, **kwargs)\n  File "/home/leonardo/Downloads/web2py/gluon/packages/dal/pydal/adapters/base.py", line 412, in execute\n    rv = self.cursor.execute(command, *args[1:], **kwargs)\n  File "/home/leonardo/Downloads/web2py/gluon/contrib/pymysql/cursors.py", line 166, in execute\n    result = self._query(query)\n  File "/home/leonardo/Downloads/web2py/gluon/contrib/pymysql/cursors.py", line 322, in _query\n    conn.query(q)\n  File "/home/leonardo/Downloads/web2py/gluon/contrib/pymysql/connections.py", line 835, in query\n    self._affected_rows = self._read_query_result(unbuffered=unbuffered)\n  File "/home/leonardo/Downloads/web2py/gluon/contrib/pymysql/connections.py", line 1019, in _read_query_result\n    result.read()\n  File "/home/leonardo/Downloads/web2py/gluon/contrib/pymysql/connections.py", line 1302, in read\n    first_packet = self.connection._read_packet()\n  File "/home/leonardo/Downloads/web2py/gluon/contrib/pymysql/connections.py", line 981, in _read_packet\n    packet.check_error()\n  File "/home/leonardo/Downloads/web2py/gluon/contrib/pymysql/connections.py", line 393, in check_error\n    err.raise_mysql_exception(self._data)\n  File "/home/leonardo/Downloads/web2py/gluon/contrib/pymysql/err.py", line 107, in raise_mysql_exception\n    raise errorclass(errno, errval)\nProgrammingError: (1146, u"Table \'kids2.frequencia\' doesn\'t exist")\n'
p446
s.