(dp1
S'output'
p2
S'<class \'gluon.contrib.pymysql.err.InternalError\'> (1050, u"Table \'frequencia\' already exists")'
p3
sS'layer'
p4
S'/home/leonardo/Downloads/web2py/applications/KidsAppManager/models/db.py'
p5
sS'code'
p6
S'<code object <module> at 0x7fc3001f4030, file "/home/leonardo/Downloads/web2py/applications/KidsAppManager/models/db.py", line 7>'
p7
sS'snapshot'
p8
(dp9
S'exception'
p10
(dp11
S'__module__'
p12
S"'gluon.contrib.pymysql.err'"
p13
sS'__getslice__'
p14
S"<method-wrapper '__getslice__' of InternalError object>"
p15
sS'__str__'
p16
S"<method-wrapper '__str__' of InternalError object>"
p17
sS'__reduce__'
p18
S'<built-in method __reduce__ of InternalError object>'
p19
sS'__dict__'
p20
S'{}'
p21
sS'__sizeof__'
p22
S'<built-in method __sizeof__ of InternalError object>'
p23
sS'__weakref__'
p24
S'None'
p25
sS'message'
p26
S"''"
p27
sS'__init__'
p28
S"<method-wrapper '__init__' of InternalError object>"
p29
sS'__setattr__'
p30
S"<method-wrapper '__setattr__' of InternalError object>"
p31
sS'__reduce_ex__'
p32
S'<built-in method __reduce_ex__ of InternalError object>'
p33
sS'__new__'
p34
S'<built-in method __new__ of type object>'
p35
sS'__format__'
p36
S'<built-in method __format__ of InternalError object>'
p37
sS'__class__'
p38
S"<class 'gluon.contrib.pymysql.err.InternalError'>"
p39
sS'__doc__'
p40
S"'Exception raised when the database encounters an...anymore, the transaction is\\n    out of sync, etc.'"
p41
sS'__getitem__'
p42
S"<method-wrapper '__getitem__' of InternalError object>"
p43
sS'__setstate__'
p44
S'<built-in method __setstate__ of InternalError object>'
p45
sS'__getattribute__'
p46
S"<method-wrapper '__getattribute__' of InternalError object>"
p47
sS'args'
p48
S'(1050, u"Table \'frequencia\' already exists")'
p49
sS'__subclasshook__'
p50
S'<built-in method __subclasshook__ of type object>'
p51
sS'__unicode__'
p52
S'<built-in method __unicode__ of InternalError object>'
p53
sS'__delattr__'
p54
S"<method-wrapper '__delattr__' of InternalError object>"
p55
sS'__repr__'
p56
S"<method-wrapper '__repr__' of InternalError object>"
p57
sS'__hash__'
p58
S"<method-wrapper '__hash__' of InternalError object>"
p59
ssS'evalue'
p60
S'(1050, u"Table \'frequencia\' already exists")'
p61
sS'request'
p62
cgluon.html
XML_unpickle
p63
(S's\xc5a\x00\x00<div><table><tr><td style="font-weight:bold;vertical-align:top;">ajax</td><td style="vertical-align:top;">:</td><td><div>False</div></td></tr><tr><td style="font-weight:bold;vertical-align:top;">application</td><td style="vertical-align:top;">:</td><td><div>KidsAppManager</div></td></tr><tr><td style="font-weight:bold;vertical-align:top;">args</td><td style="vertical-align:top;">:</td><td><div><table><tr><td><div>db</div></td></tr></table></div></td></tr><tr><td style="font-weight:bold;vertical-align:top;">cid</td><td style="vertical-align:top;">:</td><td><div>None</div></td></tr><tr><td style="font-weight:bold;vertical-align:top;">client</td><td style="vertical-align:top;">:</td><td><div>127.0.0.1</div></td></tr><tr><td style="font-weight:bold;vertical-align:top;">controller</td><td style="vertical-align:top;">:</td><td><div>appadmin</div></td></tr><tr><td style="font-weight:bold;vertical-align:top;">cookies</td><td style="vertical-align:top;">:</td><td><div><table><tr><td style="font-weight:bold;vertical-align:top;">session_id_admin</td><td style="vertical-align:top;">:</td><td><div>127.0.0.1-24404b1d-cd00-4e1d-a6ae-c18b98ebc026<table><tr><td style="font-weight:bold;vertical-align:top;">comment</td><td style="vertical-align:top;">:</td><td><div></div></td></tr><tr><td style="font-weight:bold;vertical-align:top;">domain</td><td style="vertical-align:top;">:</td><td><div></div></td></tr><tr><td style="font-weight:bold;vertical-align:top;">expires</td><td style="vertical-align:top;">:</td><td><div></div></td></tr><tr><td style="font-weight:bold;vertical-align:top;">httponly</td><td style="vertical-align:top;">:</td><td><div></div></td></tr><tr><td style="font-weight:bold;vertical-align:top;">max-age</td><td style="vertical-align:top;">:</td><td><div></div></td></tr><tr><td style="font-weight:bold;vertical-align:top;">path</td><td style="vertical-align:top;">:</td><td><div></div></td></tr><tr><td style="font-weight:bold;vertical-align:top;">secure</td><td style="vertical-align:top;">:</td><td><div></div></td></tr><tr><td style="font-weight:bold;vertical-align:top;">version</td><td style="vertical-align:top;">:</td><td><div></div></td></tr></table></div></td></tr><tr><td style="font-weight:bold;vertical-align:top;">session_id_kidsappmanager</td><td style="vertical-align:top;">:</td><td><div>127.0.0.1-fe21c102-cc45-41e1-bb34-35904c3249dd<table><tr><td style="font-weight:bold;vertical-align:top;">comment</td><td style="vertical-align:top;">:</td><td><div></div></td></tr><tr><td style="font-weight:bold;vertical-align:top;">domain</td><td style="vertical-align:top;">:</td><td><div></div></td></tr><tr><td style="font-weight:bold;vertical-align:top;">expires</td><td style="vertical-align:top;">:</td><td><div></div></td></tr><tr><td style="font-weight:bold;vertical-align:top;">httponly</td><td style="vertical-align:top;">:</td><td><div></div></td></tr><tr><td style="font-weight:bold;vertical-align:top;">max-age</td><td style="vertical-align:top;">:</td><td><div></div></td></tr><tr><td style="font-weight:bold;vertical-align:top;">path</td><td style="vertical-align:top;">:</td><td><div></div></td></tr><tr><td style="font-weight:bold;vertical-align:top;">secure</td><td style="vertical-align:top;">:</td><td><div></div></td></tr><tr><td style="font-weight:bold;vertical-align:top;">version</td><td style="vertical-align:top;">:</td><td><div></div></td></tr></table></div></td></tr><tr><td style="font-weight:bold;vertical-align:top;">session_id_myapp</td><td style="vertical-align:top;">:</td><td><div>127.0.0.1-4a69ce23-89c7-4dfa-a393-790554a28f7d<table><tr><td style="font-weight:bold;vertical-align:top;">comment</td><td style="vertical-align:top;">:</td><td><div></div></td></tr><tr><td style="font-weight:bold;vertical-align:top;">domain</td><td style="vertical-align:top;">:</td><td><div></div></td></tr><tr><td style="font-weight:bold;vertical-align:top;">expires</td><td style="vertical-align:top;">:</td><td><div></div></td></tr><tr><td style="font-weight:bold;vertical-align:top;">httponly</td><td style="vertical-align:top;">:</td><td><div></div></td></tr><tr><td style="font-weight:bold;vertical-align:top;">max-age</td><td style="vertical-align:top;">:</td><td><div></div></td></tr><tr><td style="font-weight:bold;vertical-align:top;">path</td><td style="vertical-align:top;">:</td><td><div></div></td></tr><tr><td style="font-weight:bold;vertical-align:top;">secure</td><td style="vertical-align:top;">:</td><td><div></div></td></tr><tr><td style="font-weight:bold;vertical-align:top;">version</td><td style="vertical-align:top;">:</td><td><div></div></td></tr></table></div></td></tr><tr><td style="font-weight:bold;vertical-align:top;">session_id_welcome</td><td style="vertical-align:top;">:</td><td><div>127.0.0.1-21f37025-72a2-42ff-9fa9-78ce9bae86c9<table><tr><td style="font-weight:bold;vertical-align:top;">comment</td><td style="vertical-align:top;">:</td><td><div></div></td></tr><tr><td style="font-weight:bold;vertical-align:top;">domain</td><td style="vertical-align:top;">:</td><td><div></div></td></tr><tr><td style="font-weight:bold;vertical-align:top;">expires</td><td style="vertical-align:top;">:</td><td><div></div></td></tr><tr><td style="font-weight:bold;vertical-align:top;">httponly</td><td style="vertical-align:top;">:</td><td><div></div></td></tr><tr><td style="font-weight:bold;vertical-align:top;">max-age</td><td style="vertical-align:top;">:</td><td><div></div></td></tr><tr><td style="font-weight:bold;vertical-align:top;">path</td><td style="vertical-align:top;">:</td><td><div></div></td></tr><tr><td style="font-weight:bold;vertical-align:top;">secure</td><td style="vertical-align:top;">:</td><td><div></div></td></tr><tr><td style="font-weight:bold;vertical-align:top;">version</td><td style="vertical-align:top;">:</td><td><div></div></td></tr></table></div></td></tr></table></div></td></tr><tr><td style="font-weight:bold;vertical-align:top;">env</td><td style="vertical-align:top;">:</td><td><div><table><tr><td style="font-weight:bold;vertical-align:top;">HTTP_ACCEPT</td><td style="vertical-align:top;">:</td><td><div>text/html,application/xhtml+xml,application/xml;q=0.9,image/webp,image/apng,*/*;q=0.8</div></td></tr><tr><td style="font-weight:bold;vertical-align:top;">HTTP_ACCEPT_ENCODING</td><td style="vertical-align:top;">:</td><td><div>gzip, deflate, br</div></td></tr><tr><td style="font-weight:bold;vertical-align:top;">HTTP_ACCEPT_LANGUAGE</td><td style="vertical-align:top;">:</td><td><div>pt-BR,pt;q=0.9,en-US;q=0.8,en;q=0.7</div></td></tr><tr><td style="font-weight:bold;vertical-align:top;">HTTP_CACHE_CONTROL</td><td style="vertical-align:top;">:</td><td><div>max-age=0</div></td></tr><tr><td style="font-weight:bold;vertical-align:top;">HTTP_CONNECTION</td><td style="vertical-align:top;">:</td><td><div>keep-alive</div></td></tr><tr><td style="font-weight:bold;vertical-align:top;">HTTP_COOKIE</td><td style="vertical-align:top;">:</td><td><div>session_id_admin=127.0.0.1-24404b1d-cd00-4e1d-a6ae-c18b98ebc026; session_id_welcome=127.0.0.1-21f37025-72a2-42ff-9fa9-78ce9bae86c9; session_id_myapp=127.0.0.1-4a69ce23-89c7-4dfa-a393-790554a28f7d; session_id_kidsappmanager=127.0.0.1-fe21c102-cc45-41e1-bb34-35904c3249dd</div></td></tr><tr><td style="font-weight:bold;vertical-align:top;">HTTP_HOST</td><td style="vertical-align:top;">:</td><td><div>127.0.0.1:8000</div></td></tr><tr><td style="font-weight:bold;vertical-align:top;">HTTP_REFERER</td><td style="vertical-align:top;">:</td><td><div>http://127.0.0.1:8000/KidsAppManager/appadmin/index</div></td></tr><tr><td style="font-weight:bold;vertical-align:top;">HTTP_UPGRADE_INSECURE_REQUESTS</td><td style="vertical-align:top;">:</td><td><div>1</div></td></tr><tr><td style="font-weight:bold;vertical-align:top;">HTTP_USER_AGENT</td><td style="vertical-align:top;">:</td><td><div>Mozilla/5.0 (X11; Linux x86_64) AppleWebKit/537.36 (KHTML, like Gecko) Chrome/65.0.3325.162 Safari/537.36</div></td></tr><tr><td style="font-weight:bold;vertical-align:top;">PATH_INFO</td><td style="vertical-align:top;">:</td><td><div>/KidsAppManager/appadmin/select/db</div></td></tr><tr><td style="font-weight:bold;vertical-align:top;">QUERY_STRING</td><td style="vertical-align:top;">:</td><td><div>query=db.cadastro.id%3E0</div></td></tr><tr><td style="font-weight:bold;vertical-align:top;">REMOTE_ADDR</td><td style="vertical-align:top;">:</td><td><div>127.0.0.1</div></td></tr><tr><td style="font-weight:bold;vertical-align:top;">REMOTE_PORT</td><td style="vertical-align:top;">:</td><td><div>48392</div></td></tr><tr><td style="font-weight:bold;vertical-align:top;">REQUEST_METHOD</td><td style="vertical-align:top;">:</td><td><div>GET</div></td></tr><tr><td style="font-weight:bold;vertical-align:top;">SCRIPT_NAME</td><td style="vertical-align:top;">:</td><td><div></div></td></tr><tr><td style="font-weight:bold;vertical-align:top;">SERVER_NAME</td><td style="vertical-align:top;">:</td><td><div>Unknow</div></td></tr><tr><td style="font-weight:bold;vertical-align:top;">SERVER_PORT</td><td style="vertical-align:top;">:</td><td><div>8000</div></td></tr><tr><td style="font-weight:bold;vertical-align:top;">SERVER_PROTOCOL</td><td style="vertical-align:top;">:</td><td><div>HTTP/1.1</div></td></tr><tr><td style="font-weight:bold;vertical-align:top;">SERVER_SOFTWARE</td><td style="vertical-align:top;">:</td><td><div>Rocket 1.2.6</div></td></tr><tr><td style="font-weight:bold;vertical-align:top;">app_folders</td><td style="vertical-align:top;">:</td><td><div>set([&#x27;/home/leonardo/Downloads/web2py/applications/KidsAppManager/&#x27;])</div></td></tr><tr><td style="font-weight:bold;vertical-align:top;">applications_parent</td><td style="vertical-align:top;">:</td><td><div>/home/leonardo/Downloads/web2py</div></td></tr><tr><td style="font-weight:bold;vertical-align:top;">cmd_args</td><td style="vertical-align:top;">:</td><td><div><table></table></div></td></tr><tr><td style="font-weight:bold;vertical-align:top;">cmd_options</td><td style="vertical-align:top;">:</td><td><div>&lt;Values at 0x7fc301db3b90: {&#x27;verbose&#x27;: False, &#x27;ip&#x27;: &#x27;127.0.0.1&#x27;, &#x27;debuglevel&#x27;: 30, &#x27;with_scheduler&#x27;: False, &#x27;shutdown_timeout&#x27;: 5, &#x27;taskbar&#x27;: False, &#x27;with_coverage&#x27;: False, &#x27;pid_filename&#x27;: &#x27;httpserver.pid&#x27;, &#x27;maxthreads&#x27;: None, &#x27;softcron&#x27;: False, &#x27;server_name&#x27;: &#x27;Unknow&#x27;, &#x27;bpython&#x27;: False, &#x27;nogui&#x27;: False, &#x27;port&#x27;: 8000, &#x27;print_errors&#x27;: False, &#x27;extcron&#x27;: False, &#x27;runcron&#x27;: False, &#x27;run_system_tests&#x27;: False, &#x27;test&#x27;: None, &#x27;folder&#x27;: &#x27;/home/leonardo/Downloads/web2py&#x27;, &#x27;config&#x27;: &#x27;&#x27;, &#x27;minthreads&#x27;: None, &#x27;shell&#x27;: None, &#x27;run&#x27;: &#x27;&#x27;, &#x27;log_filename&#x27;: &#x27;httpserver.log&#x27;, &#x27;profiler_dir&#x27;: None, &#x27;args&#x27;: [&#x27;&#x27;], &#x27;socket_timeout&#x27;: 5, &#x27;ssl_ca_certificate&#x27;: None, &#x27;scheduler&#x27;: None, &#x27;interfaces&#x27;: None, &#x27;ssl_private_key&#x27;: &#x27;&#x27;, &#x27;gae&#x27;: None, &#x27;password&#x27;: &#x27;******&#x27;, &#x27;request_queue_size&#x27;: 5, &#x27;ssl_certificate&#x27;: &#x27;&#x27;, &#x27;cronjob&#x27;: False, &#x27;numthreads&#x27;: None, &#x27;quiet&#x27;: False, &#x27;import_models&#x27;: False, &#x27;timeout&#x27;: 10, &#x27;plain&#x27;: False, &#x27;nobanner&#x27;: False}&gt;</div></td></tr><tr><td style="font-weight:bold;vertical-align:top;">db_sessions</td><td style="vertical-align:top;">:</td><td><div>set([])</div></td></tr><tr><td style="font-weight:bold;vertical-align:top;">debugging</td><td style="vertical-align:top;">:</td><td><div>False</div></td></tr><tr><td style="font-weight:bold;vertical-align:top;">gluon_parent</td><td style="vertical-align:top;">:</td><td><div>/home/leonardo/Downloads/web2py</div></td></tr><tr><td style="font-weight:bold;vertical-align:top;">http_accept</td><td style="vertical-align:top;">:</td><td><div>text/html,application/xhtml+xml,application/xml;q=0.9,image/webp,image/apng,*/*;q=0.8</div></td></tr><tr><td style="font-weight:bold;vertical-align:top;">http_accept_encoding</td><td style="vertical-align:top;">:</td><td><div>gzip, deflate, br</div></td></tr><tr><td style="font-weight:bold;vertical-align:top;">http_accept_language</td><td style="vertical-align:top;">:</td><td><div>pt-BR,pt;q=0.9,en-US;q=0.8,en;q=0.7</div></td></tr><tr><td style="font-weight:bold;vertical-align:top;">http_cache_control</td><td style="vertical-align:top;">:</td><td><div>max-age=0</div></td></tr><tr><td style="font-weight:bold;vertical-align:top;">http_connection</td><td style="vertical-align:top;">:</td><td><div>keep-alive</div></td></tr><tr><td style="font-weight:bold;vertical-align:top;">http_cookie</td><td style="vertical-align:top;">:</td><td><div>session_id_admin=127.0.0.1-24404b1d-cd00-4e1d-a6ae-c18b98ebc026; session_id_welcome=127.0.0.1-21f37025-72a2-42ff-9fa9-78ce9bae86c9; session_id_myapp=127.0.0.1-4a69ce23-89c7-4dfa-a393-790554a28f7d; session_id_kidsappmanager=127.0.0.1-fe21c102-cc45-41e1-bb34-35904c3249dd</div></td></tr><tr><td style="font-weight:bold;vertical-align:top;">http_host</td><td style="vertical-align:top;">:</td><td><div>127.0.0.1:8000</div></td></tr><tr><td style="font-weight:bold;vertical-align:top;">http_referer</td><td style="vertical-align:top;">:</td><td><div>http://127.0.0.1:8000/KidsAppManager/appadmin/index</div></td></tr><tr><td style="font-weight:bold;vertical-align:top;">http_upgrade_insecure_requests</td><td style="vertical-align:top;">:</td><td><div>1</div></td></tr><tr><td style="font-weight:bold;vertical-align:top;">http_user_agent</td><td style="vertical-align:top;">:</td><td><div>Mozilla/5.0 (X11; Linux x86_64) AppleWebKit/537.36 (KHTML, like Gecko) Chrome/65.0.3325.162 Safari/537.36</div></td></tr><tr><td style="font-weight:bold;vertical-align:top;">is_jython</td><td style="vertical-align:top;">:</td><td><div>False</div></td></tr><tr><td style="font-weight:bold;vertical-align:top;">is_py2</td><td style="vertical-align:top;">:</td><td><div>True</div></td></tr><tr><td style="font-weight:bold;vertical-align:top;">is_pypy</td><td style="vertical-align:top;">:</td><td><div>False</div></td></tr><tr><td style="font-weight:bold;vertical-align:top;">is_source</td><td style="vertical-align:top;">:</td><td><div>True</div></td></tr><tr><td style="font-weight:bold;vertical-align:top;">path_info</td><td style="vertical-align:top;">:</td><td><div>/KidsAppManager/appadmin/select/db</div></td></tr><tr><td style="font-weight:bold;vertical-align:top;">query_string</td><td style="vertical-align:top;">:</td><td><div>query=db.cadastro.id%3E0</div></td></tr><tr><td style="font-weight:bold;vertical-align:top;">remote_addr</td><td style="vertical-align:top;">:</td><td><div>127.0.0.1</div></td></tr><tr><td style="font-weight:bold;vertical-align:top;">remote_port</td><td style="vertical-align:top;">:</td><td><div>48392</div></td></tr><tr><td style="font-weight:bold;vertical-align:top;">request_method</td><td style="vertical-align:top;">:</td><td><div>GET</div></td></tr><tr><td style="font-weight:bold;vertical-align:top;">request_uri</td><td style="vertical-align:top;">:</td><td><div>/KidsAppManager/appadmin/select/db?query=db.cadastro.id%3E0</div></td></tr><tr><td style="font-weight:bold;vertical-align:top;">script_name</td><td style="vertical-align:top;">:</td><td><div></div></td></tr><tr><td style="font-weight:bold;vertical-align:top;">server_name</td><td style="vertical-align:top;">:</td><td><div>Unknow</div></td></tr><tr><td style="font-weight:bold;vertical-align:top;">server_port</td><td style="vertical-align:top;">:</td><td><div>8000</div></td></tr><tr><td style="font-weight:bold;vertical-align:top;">server_protocol</td><td style="vertical-align:top;">:</td><td><div>HTTP/1.1</div></td></tr><tr><td style="font-weight:bold;vertical-align:top;">server_software</td><td style="vertical-align:top;">:</td><td><div>Rocket 1.2.6</div></td></tr><tr><td style="font-weight:bold;vertical-align:top;">web2py_path</td><td style="vertical-align:top;">:</td><td><div>/home/leonardo/Downloads/web2py</div></td></tr><tr><td style="font-weight:bold;vertical-align:top;">web2py_version</td><td style="vertical-align:top;">:</td><td><div>2.16.1-stable+timestamp.2017.11.14.05.54.25</div></td></tr><tr><td style="font-weight:bold;vertical-align:top;">wsgi.errors</td><td style="vertical-align:top;">:</td><td><div>&lt;open file &#x27;&lt;stderr&gt;&#x27;, mode &#x27;w&#x27; at 0x7fc305c9a1e0&gt;</div></td></tr><tr><td style="font-weight:bold;vertical-align:top;">wsgi.file_wrapper</td><td style="vertical-align:top;">:</td><td><div>&lt;class wsgiref.util.FileWrapper at 0x7fc301e3bef0&gt;</div></td></tr><tr><td style="font-weight:bold;vertical-align:top;">wsgi.input</td><td style="vertical-align:top;">:</td><td><div>&lt;socket._fileobject object at 0x7fc30211c950&gt;</div></td></tr><tr><td style="font-weight:bold;vertical-align:top;">wsgi.multiprocess</td><td style="vertical-align:top;">:</td><td><div>False</div></td></tr><tr><td style="font-weight:bold;vertical-align:top;">wsgi.multithread</td><td style="vertical-align:top;">:</td><td><div>True</div></td></tr><tr><td style="font-weight:bold;vertical-align:top;">wsgi.run_once</td><td style="vertical-align:top;">:</td><td><div>False</div></td></tr><tr><td style="font-weight:bold;vertical-align:top;">wsgi.url_scheme</td><td style="vertical-align:top;">:</td><td><div>http</div></td></tr><tr><td style="font-weight:bold;vertical-align:top;">wsgi.version</td><td style="vertical-align:top;">:</td><td><div><table><tr><td><div>1</div></td></tr><tr><td><div>0</div></td></tr></table></div></td></tr><tr><td style="font-weight:bold;vertical-align:top;">wsgi_errors</td><td style="vertical-align:top;">:</td><td><div>&lt;open file &#x27;&lt;stderr&gt;&#x27;, mode &#x27;w&#x27; at 0x7fc305c9a1e0&gt;</div></td></tr><tr><td style="font-weight:bold;vertical-align:top;">wsgi_file_wrapper</td><td style="vertical-align:top;">:</td><td><div>&lt;class wsgiref.util.FileWrapper at 0x7fc301e3bef0&gt;</div></td></tr><tr><td style="font-weight:bold;vertical-align:top;">wsgi_input</td><td style="vertical-align:top;">:</td><td><div>&lt;socket._fileobject object at 0x7fc30211c950&gt;</div></td></tr><tr><td style="font-weight:bold;vertical-align:top;">wsgi_multiprocess</td><td style="vertical-align:top;">:</td><td><div>False</div></td></tr><tr><td style="font-weight:bold;vertical-align:top;">wsgi_multithread</td><td style="vertical-align:top;">:</td><td><div>True</div></td></tr><tr><td style="font-weight:bold;vertical-align:top;">wsgi_run_once</td><td style="vertical-align:top;">:</td><td><div>False</div></td></tr><tr><td style="font-weight:bold;vertical-align:top;">wsgi_url_scheme</td><td style="vertical-align:top;">:</td><td><div>http</div></td></tr><tr><td style="font-weight:bold;vertical-align:top;">wsgi_version</td><td style="vertical-align:top;">:</td><td><div><table><tr><td><div>1</div></td></tr><tr><td><div>0</div></td></tr></table></div></td></tr></table></div></td></tr><tr><td style="font-weight:bold;vertical-align:top;">extension</td><td style="vertical-align:top;">:</td><td><div>html</div></td></tr><tr><td style="font-weight:bold;vertical-align:top;">folder</td><td style="vertical-align:top;">:</td><td><div>/home/leonardo/Downloads/web2py/applications/KidsAppManager/</div></td></tr><tr><td style="font-weight:bold;vertical-align:top;">function</td><td style="vertical-align:top;">:</td><td><div>select</div></td></tr><tr><td style="font-weight:bold;vertical-align:top;">global_settings</td><td style="vertical-align:top;">:</td><td><div><table><tr><td style="font-weight:bold;vertical-align:top;">app_folders</td><td style="vertical-align:top;">:</td><td><div>set([&#x27;/home/leonardo/Downloads/web2py/applications/KidsAppManager/&#x27;])</div></td></tr><tr><td style="font-weight:bold;vertical-align:top;">applications_parent</td><td style="vertical-align:top;">:</td><td><div>/home/leonardo/Downloads/web2py</div></td></tr><tr><td style="font-weight:bold;vertical-align:top;">cmd_args</td><td style="vertical-align:top;">:</td><td><div><table></table></div></td></tr><tr><td style="font-weight:bold;vertical-align:top;">cmd_options</td><td style="vertical-align:top;">:</td><td><div>&lt;Values at 0x7fc301db3b90: {&#x27;verbose&#x27;: False, &#x27;ip&#x27;: &#x27;127.0.0.1&#x27;, &#x27;debuglevel&#x27;: 30, &#x27;with_scheduler&#x27;: False, &#x27;shutdown_timeout&#x27;: 5, &#x27;taskbar&#x27;: False, &#x27;with_coverage&#x27;: False, &#x27;pid_filename&#x27;: &#x27;httpserver.pid&#x27;, &#x27;maxthreads&#x27;: None, &#x27;softcron&#x27;: False, &#x27;server_name&#x27;: &#x27;Unknow&#x27;, &#x27;bpython&#x27;: False, &#x27;nogui&#x27;: False, &#x27;port&#x27;: 8000, &#x27;print_errors&#x27;: False, &#x27;extcron&#x27;: False, &#x27;runcron&#x27;: False, &#x27;run_system_tests&#x27;: False, &#x27;test&#x27;: None, &#x27;folder&#x27;: &#x27;/home/leonardo/Downloads/web2py&#x27;, &#x27;config&#x27;: &#x27;&#x27;, &#x27;minthreads&#x27;: None, &#x27;shell&#x27;: None, &#x27;run&#x27;: &#x27;&#x27;, &#x27;log_filename&#x27;: &#x27;httpserver.log&#x27;, &#x27;profiler_dir&#x27;: None, &#x27;args&#x27;: [&#x27;&#x27;], &#x27;socket_timeout&#x27;: 5, &#x27;ssl_ca_certificate&#x27;: None, &#x27;scheduler&#x27;: None, &#x27;interfaces&#x27;: None, &#x27;ssl_private_key&#x27;: &#x27;&#x27;, &#x27;gae&#x27;: None, &#x27;password&#x27;: &#x27;******&#x27;, &#x27;request_queue_size&#x27;: 5, &#x27;ssl_certificate&#x27;: &#x27;&#x27;, &#x27;cronjob&#x27;: False, &#x27;numthreads&#x27;: None, &#x27;quiet&#x27;: False, &#x27;import_models&#x27;: False, &#x27;timeout&#x27;: 10, &#x27;plain&#x27;: False, &#x27;nobanner&#x27;: False}&gt;</div></td></tr><tr><td style="font-weight:bold;vertical-align:top;">db_sessions</td><td style="vertical-align:top;">:</td><td><div>set([])</div></td></tr><tr><td style="font-weight:bold;vertical-align:top;">debugging</td><td style="vertical-align:top;">:</td><td><div>False</div></td></tr><tr><td style="font-weight:bold;vertical-align:top;">gluon_parent</td><td style="vertical-align:top;">:</td><td><div>/home/leonardo/Downloads/web2py</div></td></tr><tr><td style="font-weight:bold;vertical-align:top;">is_jython</td><td style="vertical-align:top;">:</td><td><div>False</div></td></tr><tr><td style="font-weight:bold;vertical-align:top;">is_py2</td><td style="vertical-align:top;">:</td><td><div>True</div></td></tr><tr><td style="font-weight:bold;vertical-align:top;">is_pypy</td><td style="vertical-align:top;">:</td><td><div>False</div></td></tr><tr><td style="font-weight:bold;vertical-align:top;">is_source</td><td style="vertical-align:top;">:</td><td><div>True</div></td></tr><tr><td style="font-weight:bold;vertical-align:top;">local_hosts</td><td style="vertical-align:top;">:</td><td><div><table><tr><td><div>127.0.1.1</div></td></tr><tr><td><div>::1</div></td></tr><tr><td><div>Unknow</div></td></tr><tr><td><div>::ffff:127.0.0.1</div></td></tr><tr><td><div>127.0.0.1</div></td></tr></table></div></td></tr><tr><td style="font-weight:bold;vertical-align:top;">web2py_version</td><td style="vertical-align:top;">:</td><td><div>2.16.1-stable+timestamp.2017.11.14.05.54.25</div></td></tr></table></div></td></tr><tr><td style="font-weight:bold;vertical-align:top;">is_https</td><td style="vertical-align:top;">:</td><td><div>False</div></td></tr><tr><td style="font-weight:bold;vertical-align:top;">is_local</td><td style="vertical-align:top;">:</td><td><div>True</div></td></tr><tr><td style="font-weight:bold;vertical-align:top;">is_restful</td><td style="vertical-align:top;">:</td><td><div>False</div></td></tr><tr><td style="font-weight:bold;vertical-align:top;">is_scheduler</td><td style="vertical-align:top;">:</td><td><div>False</div></td></tr><tr><td style="font-weight:bold;vertical-align:top;">is_shell</td><td style="vertical-align:top;">:</td><td><div>False</div></td></tr><tr><td style="font-weight:bold;vertical-align:top;">now</td><td style="vertical-align:top;">:</td><td><div>datetime.datetime(2018, 3, 17, 16, 13, 55, 54270)</div></td></tr><tr><td style="font-weight:bold;vertical-align:top;">raw_args</td><td style="vertical-align:top;">:</td><td><div>db</div></td></tr><tr><td style="font-weight:bold;vertical-align:top;">raw_extension</td><td style="vertical-align:top;">:</td><td><div>None</div></td></tr><tr><td style="font-weight:bold;vertical-align:top;">url</td><td style="vertical-align:top;">:</td><td><div>/KidsAppManager/appadmin/select/db</div></td></tr><tr><td style="font-weight:bold;vertical-align:top;">utcnow</td><td style="vertical-align:top;">:</td><td><div>datetime.datetime(2018, 3, 17, 19, 13, 55, 54292)</div></td></tr><tr><td style="font-weight:bold;vertical-align:top;">wsgi</td><td style="vertical-align:top;">:</td><td><div>&lt;gluon.main.LazyWSGI object at 0x7fc301b47690&gt;</div></td></tr></table></div>'
tRp64
sS'frames'
p65
(lp66
(dp67
S'file'
p68
S'/home/leonardo/Downloads/web2py/gluon/restricted.py'
p69
sS'dump'
p70
(dp71
S'environment'
p72
S"{'A': <class 'gluon.html.A'>, 'ANY_OF': <class 'gluon.validators.ANY_OF'>, 'ASSIGNJS': <function ASSIGNJS>, 'AppConfig': <function AppConfig>, 'Auth': <class 'gluon.tools.Auth'>, 'B': <class 'gluon.html.B'>, 'BEAUTIFY': <class 'gluon.html.BEAUTIFY'>, 'BODY': <class 'gluon.html.BODY'>, 'BR': <class 'gluon.html.BR'>, 'BUTTON': <class 'gluon.html.BUTTON'>, ...}"
p73
sS'ccode'
p74
S'<code object <module> at 0x7fc3001f4030, file "/...pplications/KidsAppManager/models/db.py", line 7>'
p75
ssS'lnum'
p76
I219
sS'lines'
p77
(dp78
I214
S'    if environment is None:'
p79
sI215
S'        environment = {}'
p80
sI216
S"    environment['__file__'] = layer"
p81
sI217
S"    environment['__name__'] = '__restricted__'"
p82
sI218
S'    try:'
p83
sI219
S'        exec(ccode, environment)'
p84
sI220
S'    except HTTP:'
p85
sI221
S'        raise'
p86
sI222
S'    except RestrictedError:'
p87
sI223
S'        # do not encapsulate (obfuscate) the original RestrictedError'
p88
ssS'call'
p89
S'(ccode=<code object <module> at 0x7fc3001f4030, file "/...pplications/KidsAppManager/models/db.py", line 7>, environment={\'A\': <class \'gluon.html.A\'>, \'ANY_OF\': <class \'gluon.validators.ANY_OF\'>, \'ASSIGNJS\': <function ASSIGNJS>, \'AppConfig\': <function AppConfig>, \'Auth\': <class \'gluon.tools.Auth\'>, \'B\': <class \'gluon.html.B\'>, \'BEAUTIFY\': <class \'gluon.html.BEAUTIFY\'>, \'BODY\': <class \'gluon.html.BODY\'>, \'BR\': <class \'gluon.html.BR\'>, \'BUTTON\': <class \'gluon.html.BUTTON\'>, ...}, layer=\'/home/leonardo/Downloads/web2py/applications/KidsAppManager/models/db.py\', scode=<code object <module> at 0x7fc3001f4030, file "/...pplications/KidsAppManager/models/db.py", line 7>)'
p90
sS'func'
p91
S'restricted'
p92
sa(dp93
g68
S'/home/leonardo/Downloads/web2py/applications/KidsAppManager/models/db.py'
p94
sg70
(dp95
S'migrate'
p96
S'undefined'
p97
ssg76
I187
sg77
(dp98
I180
S''
sI181
S'db.define_table('
p99
sI182
S"    'frequencia',"
p100
sI183
S"    Field('Aluno',db.cadastro, requires=IS_IN_DB(db,'cadastro.nome_crianca')),"
p101
sI184
S"    Field('data_entrada','datetime',requires=IS_NOT_EMPTY()),"
p102
sI185
S"    Field('cartao',requires=IS_NOT_EMPTY(),label='Cart\xc3\xa3o de entrada'),"
p103
sI186
S"    Field('presenca','boolean',label='Presente?'),"
p104
sI187
S"    migrate ='frequencia'"
p105
sI188
S')'
sI189
S''
ssg89
S'()'
p106
sg91
S'<module>'
p107
sa(dp108
g68
S'/home/leonardo/Downloads/web2py/gluon/packages/dal/pydal/base.py'
p109
sg70
(dp110
S'fields'
p111
S'(<pydal.objects.Field object>, <pydal.objects.Field object>, <pydal.objects.Field object>, <pydal.objects.Field object>)'
p112
sS'self'
p113
S'<DAL uri="mysql:******@localhost/appkids">'
p114
sS'args'
p115
S"{'migrate': 'frequencia'}"
p116
sS'tablename'
p117
S"'frequencia'"
p118
sS'table'
p119
g97
sS'self.lazy_define_table'
p120
S'<bound method DAL.lazy_define_table of <DAL uri="mysql:******@localhost/appkids">>'
p121
ssg76
I586
sg77
(dp122
I581
S'                                  (tablename, invalid_args))'
p123
sI582
S'        if self._lazy_tables and tablename not in self._LAZY_TABLES:'
p124
sI583
S'            self._LAZY_TABLES[tablename] = (tablename, fields, args)'
p125
sI584
S'            table = None'
p126
sI585
S'        else:'
p127
sI586
S'            table = self.lazy_define_table(tablename, *fields, **args)'
p128
sI587
S'        if tablename not in self.tables:'
p129
sI588
S'            self.tables.append(tablename)'
p130
sI589
S'        return table'
p131
sI590
S''
ssg89
S'(self=<DAL uri="mysql:******@localhost/appkids">, tablename=\'frequencia\', *fields=(<pydal.objects.Field object>, <pydal.objects.Field object>, <pydal.objects.Field object>, <pydal.objects.Field object>), **args={\'migrate\': \'frequencia\'})'
p132
sg91
S'define_table'
p133
sa(dp134
g68
S'/home/leonardo/Downloads/web2py/gluon/packages/dal/pydal/base.py'
p135
sg70
(dp136
S'polymodel'
p137
S'None'
p138
ssg76
I620
sg77
(dp139
I615
S'            try:'
p140
sI616
S'                GLOBAL_LOCKER.acquire()'
p141
sI617
S'                self._adapter.create_table('
p142
sI618
S'                    table, migrate=migrate,'
p143
sI619
S'                    fake_migrate=fake_migrate,'
p144
sI620
S'                    polymodel=polymodel)'
p145
sI621
S'            finally:'
p146
sI622
S'                GLOBAL_LOCKER.release()'
p147
sI623
S'        else:'
p148
sI624
S'            table._dbt = None'
p149
ssg89
S'(self=<DAL uri="mysql:******@localhost/appkids">, tablename=\'frequencia\', *fields=(<pydal.objects.Field object>, <pydal.objects.Field object>, <pydal.objects.Field object>, <pydal.objects.Field object>), **args={\'migrate\': \'frequencia\'})'
p150
sg91
S'lazy_define_table'
p151
sa(dp152
g68
S'/home/leonardo/Downloads/web2py/gluon/packages/dal/pydal/adapters/base.py'
p153
sg70
(dp154
S'self'
p155
S'<pydal.adapters.mysql.MySQL object>'
p156
sS'args'
p157
S'(<Table frequencia (id, Aluno, data_entrada, cartao, presenca)>,)'
p158
sS'self.migrator'
p159
S'<pydal.migrator.Migrator object>'
p160
sS'self.migrator.create_table'
p161
S'<bound method Migrator.create_table of <pydal.migrator.Migrator object>>'
p162
sS'kwargs'
p163
S"{'fake_migrate': False, 'migrate': 'frequencia', 'polymodel': None}"
p164
ssg76
I797
sg77
(dp165
I800
S'        super(SQLAdapter, self)._drop_table_cleanup(table)'
p166
sI801
S'        if table._dbt:'
p167
sI792
S''
sI793
S'    def bulk_insert(self, table, items):'
p168
sI794
S'        return [self.insert(table, item) for item in items]'
p169
sI795
S''
sI796
S'    def create_table(self, *args, **kwargs):'
p170
sI797
S'        return self.migrator.create_table(*args, **kwargs)'
p171
sI798
S''
sI799
S'    def _drop_table_cleanup(self, table):'
p172
ssg89
S"(self=<pydal.adapters.mysql.MySQL object>, *args=(<Table frequencia (id, Aluno, data_entrada, cartao, presenca)>,), **kwargs={'fake_migrate': False, 'migrate': 'frequencia', 'polymodel': None})"
p173
sg91
S'create_table'
p174
sa(dp175
g68
S'/home/leonardo/Downloads/web2py/gluon/packages/dal/pydal/migrator.py'
p176
sg70
(dp177
S'query'
p178
S"'CREATE TABLE `frequencia`(\\n    `id` INT AUTO_INC...RY KEY (`id`)\\n) ENGINE=InnoDB CHARACTER SET utf8;'"
p179
sS'self'
p180
S'<pydal.migrator.Migrator object>'
p181
sS'self.adapter'
p182
S'<pydal.adapters.mysql.MySQL object>'
p183
sS'self.adapter.create_sequence_and_triggers'
p184
S'<bound method MySQL.create_sequence_and_triggers of <pydal.adapters.mysql.MySQL object>>'
p185
sS'table'
p186
S'<Table frequencia (id, Aluno, data_entrada, cartao, presenca)>'
p187
ssg76
I277
sg77
(dp188
I272
S'            if table._dbt:'
p189
sI273
S"                self.log('timestamp: %s\\n%s\\n'"
p190
sI274
S'                         % (datetime.datetime.today().isoformat(),'
p191
sI275
S'                            query), table)'
p192
sI276
S'            if not fake_migrate:'
p193
sI277
S'                self.adapter.create_sequence_and_triggers(query, table)'
p194
sI278
S'                db.commit()'
p195
sI279
S'                # Postgres geom fields are added now,'
p196
sI280
S'                # after the table has been created'
p197
sI281
S'                for query in postcreation_fields:'
p198
ssg89
S"(self=<pydal.migrator.Migrator object>, table=<Table frequencia (id, Aluno, data_entrada, cartao, presenca)>, migrate='frequencia', fake_migrate=False, polymodel=None)"
p199
sg91
g174
sa(dp200
g68
S'/home/leonardo/Downloads/web2py/gluon/packages/dal/pydal/adapters/base.py'
p201
sg70
(dp202
S'query'
p203
S"'CREATE TABLE `frequencia`(\\n    `id` INT AUTO_INC...RY KEY (`id`)\\n) ENGINE=InnoDB CHARACTER SET utf8;'"
p204
sS'self'
p205
S'<pydal.adapters.mysql.MySQL object>'
p206
sS'self.execute'
p207
S'<bound method MySQL.wrap of <pydal.adapters.mysql.MySQL object>>'
p208
ssg76
I880
sg77
(dp209
I875
S'    @with_connection'
p210
sI876
S'    def rollback_prepared(self, key):'
p211
sI877
S'        self.connection.rollback()'
p212
sI878
S''
sI879
S'    def create_sequence_and_triggers(self, query, table, **args):'
p213
sI880
S'        self.execute(query)'
p214
sI881
S''
sI882
S'    def sqlsafe_table(self, tablename, original_tablename=None):'
p215
sI883
S'        if original_tablename is not None:'
p216
sI884
S'            return self.dialect.alias(original_tablename, tablename)'
p217
ssg89
S"(self=<pydal.adapters.mysql.MySQL object>, query='CREATE TABLE `frequencia`(\\n    `id` INT AUTO_INC...RY KEY (`id`)\\n) ENGINE=InnoDB CHARACTER SET utf8;', table=<Table frequencia (id, Aluno, data_entrada, cartao, presenca)>, **args={})"
p218
sg91
S'create_sequence_and_triggers'
p219
sa(dp220
g68
S'/home/leonardo/Downloads/web2py/gluon/packages/dal/pydal/adapters/__init__.py'
p221
sg70
(dp222
S'kwargs'
p223
g21
sS'args'
p224
S"(<pydal.adapters.mysql.MySQL object>, 'CREATE TABLE `frequencia`(\\n    `id` INT AUTO_INC...RY KEY (`id`)\\n) ENGINE=InnoDB CHARACTER SET utf8;')"
p225
sS'f'
S'<function execute>'
p226
ssg76
I67
sg77
(dp227
I64
S'            if len(args) > 1:'
p228
sI65
S'                raise ValueError(args[1])'
p229
sI66
S"            raise RuntimeError('no connection available')"
p230
sI67
S'        return f(*args, **kwargs)'
p231
sI68
S'    return wrap'
p232
sI69
S''
sI70
S''
sI71
S'from .base import SQLAdapter, NoSQLAdapter'
p233
sI62
S'    def wrap(*args, **kwargs):'
p234
sI63
S'        if not args[0].connection:'
p235
ssg89
S"(*args=(<pydal.adapters.mysql.MySQL object>, 'CREATE TABLE `frequencia`(\\n    `id` INT AUTO_INC...RY KEY (`id`)\\n) ENGINE=InnoDB CHARACTER SET utf8;'), **kwargs={})"
p236
sg91
S'wrap'
p237
sa(dp238
g68
S'/home/leonardo/Downloads/web2py/gluon/packages/dal/pydal/adapters/base.py'
p239
sg70
(dp240
S'rv'
p241
g97
sS'self'
p242
S'<pydal.adapters.mysql.MySQL object>'
p243
sS'args'
p244
S"('CREATE TABLE `frequencia`(\\n    `id` INT AUTO_INC...RY KEY (`id`)\\n) ENGINE=InnoDB CHARACTER SET utf8;',)"
p245
sS'self.cursor'
p246
S'<gluon.contrib.pymysql.cursors.Cursor object>'
p247
sS'command'
p248
S"'CREATE TABLE `frequencia`(\\n    `id` INT AUTO_INC...RY KEY (`id`)\\n) ENGINE=InnoDB CHARACTER SET utf8;'"
p249
sS'self.cursor.execute'
p250
S'<bound method Cursor.execute of <gluon.contrib.pymysql.cursors.Cursor object>>'
p251
sS'kwargs'
p252
g21
ssg76
I412
sg77
(dp253
I416
S''
sI407
S'    def execute(self, *args, **kwargs):'
p254
sI408
S'        command = self.filter_sql_command(args[0])'
p255
sI409
S'        handlers = self._build_handlers_for_execution()'
p256
sI410
S'        for handler in handlers:'
p257
sI411
S'            handler.before_execute(command)'
p258
sI412
S'        rv = self.cursor.execute(command, *args[1:], **kwargs)'
p259
sI413
S'        for handler in handlers:'
p260
sI414
S'            handler.after_execute(command)'
p261
sI415
S'        return rv'
p262
ssg89
S"(self=<pydal.adapters.mysql.MySQL object>, *args=('CREATE TABLE `frequencia`(\\n    `id` INT AUTO_INC...RY KEY (`id`)\\n) ENGINE=InnoDB CHARACTER SET utf8;',), **kwargs={})"
p263
sg91
S'execute'
p264
sa(dp265
g68
S'/home/leonardo/Downloads/web2py/gluon/contrib/pymysql/cursors.py'
p266
sg70
(dp267
S'query'
p268
S"'CREATE TABLE `frequencia`(\\n    `id` INT AUTO_INC...RY KEY (`id`)\\n) ENGINE=InnoDB CHARACTER SET utf8;'"
p269
sS'self'
p270
S'<gluon.contrib.pymysql.cursors.Cursor object>'
p271
sS'result'
p272
g97
sS'self._query'
p273
S'<bound method Cursor._query of <gluon.contrib.pymysql.cursors.Cursor object>>'
p274
ssg76
I166
sg77
(dp275
I161
S'        while self.nextset():'
p276
sI162
S'            pass'
p277
sI163
S''
sI164
S'        query = self.mogrify(query, args)'
p278
sI165
S''
sI166
S'        result = self._query(query)'
p279
sI167
S'        self._executed = query'
p280
sI168
S'        return result'
p281
sI169
S''
sI170
S'    def executemany(self, query, args):'
p282
ssg89
S"(self=<gluon.contrib.pymysql.cursors.Cursor object>, query='CREATE TABLE `frequencia`(\\n    `id` INT AUTO_INC...RY KEY (`id`)\\n) ENGINE=InnoDB CHARACTER SET utf8;', args=None)"
p283
sg91
g264
sa(dp284
g68
S'/home/leonardo/Downloads/web2py/gluon/contrib/pymysql/cursors.py'
p285
sg70
(dp286
S'q'
S"'CREATE TABLE `frequencia`(\\n    `id` INT AUTO_INC...RY KEY (`id`)\\n) ENGINE=InnoDB CHARACTER SET utf8;'"
p287
sS'conn.query'
p288
S'<bound method Connection.query of <gluon.contrib.pymysql.connections.Connection object>>'
p289
sS'conn'
p290
S'<gluon.contrib.pymysql.connections.Connection object>'
p291
ssg76
I322
sg77
(dp292
I320
S'        conn = self._get_db()'
p293
sI321
S'        self._last_executed = q'
p294
sI322
S'        conn.query(q)'
p295
sI323
S'        self._do_get_result()'
p296
sI324
S'        return self.rowcount'
p297
sI325
S''
sI326
S'    def _do_get_result(self):'
p298
sI317
S'        self.rownumber = r'
p299
sI318
S''
sI319
S'    def _query(self, q):'
p300
ssg89
S"(self=<gluon.contrib.pymysql.cursors.Cursor object>, q='CREATE TABLE `frequencia`(\\n    `id` INT AUTO_INC...RY KEY (`id`)\\n) ENGINE=InnoDB CHARACTER SET utf8;')"
p301
sg91
S'_query'
p302
sa(dp303
g68
S'/home/leonardo/Downloads/web2py/gluon/contrib/pymysql/connections.py'
p304
sg70
(dp305
S'self._read_query_result'
p306
S'<bound method Connection._read_query_result of <...n.contrib.pymysql.connections.Connection object>>'
p307
sS'self'
p308
S'<gluon.contrib.pymysql.connections.Connection object>'
p309
sS'unbuffered'
p310
S'False'
p311
sS'self._affected_rows'
p312
S'0'
ssg76
I835
sg77
(dp313
I832
S'            else:'
p314
sI833
S"                sql = sql.encode(self.encoding, 'surrogateescape')"
p315
sI834
S'        self._execute_command(COMMAND.COM_QUERY, sql)'
p316
sI835
S'        self._affected_rows = self._read_query_result(unbuffered=unbuffered)'
p317
sI836
S'        return self._affected_rows'
p318
sI837
S''
sI838
S'    def next_result(self, unbuffered=False):'
p319
sI839
S'        self._affected_rows = self._read_query_result(unbuffered=unbuffered)'
p320
sI830
S'            if PY2:'
p321
sI831
S'                sql = sql.encode(self.encoding)'
p322
ssg89
S"(self=<gluon.contrib.pymysql.connections.Connection object>, sql='CREATE TABLE `frequencia`(\\n    `id` INT AUTO_INC...RY KEY (`id`)\\n) ENGINE=InnoDB CHARACTER SET utf8;', unbuffered=False)"
p323
sg91
S'query'
p324
sa(dp325
g68
S'/home/leonardo/Downloads/web2py/gluon/contrib/pymysql/connections.py'
p326
sg70
(dp327
S'result.read'
p328
S'<bound method MySQLResult.read of <gluon.contrib.pymysql.connections.MySQLResult object>>'
p329
sS'result'
p330
S'<gluon.contrib.pymysql.connections.MySQLResult object>'
p331
ssg76
I1019
sg77
(dp332
I1014
S'                result.unbuffered_active = False'
p333
sI1015
S'                result.connection = None'
p334
sI1016
S'                raise'
p335
sI1017
S'        else:'
p336
sI1018
S'            result = MySQLResult(self)'
p337
sI1019
S'            result.read()'
p338
sI1020
S'        self._result = result'
p339
sI1021
S'        if result.server_status is not None:'
p340
sI1022
S'            self.server_status = result.server_status'
p341
sI1023
S'        return result.affected_rows'
p342
ssg89
S'(self=<gluon.contrib.pymysql.connections.Connection object>, unbuffered=False)'
p343
sg91
S'_read_query_result'
p344
sa(dp345
g68
S'/home/leonardo/Downloads/web2py/gluon/contrib/pymysql/connections.py'
p346
sg70
(dp347
S'first_packet'
p348
g97
sS'self'
p349
S'<gluon.contrib.pymysql.connections.MySQLResult object>'
p350
sS'self.connection'
p351
S'None'
p352
sS'self.connection._read_packet'
p353
g97
ssg76
I1302
sg77
(dp354
I1297
S'        if self.unbuffered_active:'
p355
sI1298
S'            self._finish_unbuffered_query()'
p356
sI1299
S''
sI1300
S'    def read(self):'
p357
sI1301
S'        try:'
p358
sI1302
S'            first_packet = self.connection._read_packet()'
p359
sI1303
S''
sI1304
S'            if first_packet.is_ok_packet():'
p360
sI1305
S'                self._read_ok_packet(first_packet)'
p361
sI1306
S'            elif first_packet.is_load_local_packet():'
p362
ssg89
S'(self=<gluon.contrib.pymysql.connections.MySQLResult object>)'
p363
sg91
S'read'
p364
sa(dp365
g68
S'/home/leonardo/Downloads/web2py/gluon/contrib/pymysql/connections.py'
p366
sg70
(dp367
S'packet'
p368
S'<gluon.contrib.pymysql.connections.MysqlPacket object>'
p369
sS'packet.check_error'
p370
S'<bound method MysqlPacket.check_error of <gluon.contrib.pymysql.connections.MysqlPacket object>>'
p371
ssg76
I981
sg77
(dp372
I976
S'                continue'
p373
sI977
S'            if bytes_to_read < MAX_PACKET_LEN:'
p374
sI978
S'                break'
p375
sI979
S''
sI980
S'        packet = packet_type(buff, self.encoding)'
p376
sI981
S'        packet.check_error()'
p377
sI982
S'        return packet'
p378
sI983
S''
sI984
S'    def _read_bytes(self, num_bytes):'
p379
sI985
S'        self._sock.settimeout(self._read_timeout)'
p380
ssg89
S"(self=<gluon.contrib.pymysql.connections.Connection object>, packet_type=<class 'gluon.contrib.pymysql.connections.MysqlPacket'>)"
p381
sg91
S'_read_packet'
p382
sa(dp383
g68
S'/home/leonardo/Downloads/web2py/gluon/contrib/pymysql/connections.py'
p384
sg70
(dp385
S'self._data'
p386
S'"\\xff\\x1a\\x04#42S01Table \'frequencia\' already exists"'
p387
sS'self'
p388
S'<gluon.contrib.pymysql.connections.MysqlPacket object>'
p389
sS'global err'
p390
S"<module 'gluon.contrib.pymysql.err' from '/home/.../Downloads/web2py/gluon/contrib/pymysql/err.pyc'>"
p391
sS'err.raise_mysql_exception'
p392
S'<function raise_mysql_exception>'
p393
ssg76
I393
sg77
(dp394
I388
S'        if self.is_error_packet():'
p395
sI389
S'            self.rewind()'
p396
sI390
S'            self.advance(1)  # field_count == error (we already know that)'
p397
sI391
S'            errno = self.read_uint16()'
p398
sI392
S'            if DEBUG: print("errno =", errno)'
p399
sI393
S'            err.raise_mysql_exception(self._data)'
p400
sI394
S''
sI395
S'    def dump(self):'
p401
sI396
S'        dump_packet(self._data)'
p402
sI397
S''
ssg89
S'(self=<gluon.contrib.pymysql.connections.MysqlPacket object>)'
p403
sg91
S'check_error'
p404
sa(dp405
g68
S'/home/leonardo/Downloads/web2py/gluon/contrib/pymysql/err.py'
p406
sg70
(dp407
S'errorclass'
p408
S"<class 'gluon.contrib.pymysql.err.InternalError'>"
p409
sS'errno'
p410
S'1050'
p411
sS'errval'
p412
S'u"Table \'frequencia\' already exists"'
p413
ssg76
I107
sg77
(dp414
I98
S'def raise_mysql_exception(data):'
p415
sI99
S"    errno = struct.unpack('<h', data[1:3])[0]"
p416
sI100
S'    is_41 = data[3:4] == b"#"'
p417
sI101
S'    if is_41:'
p418
sI102
S'        # client protocol 4.1'
p419
sI103
S"        errval = data[9:].decode('utf-8', 'replace')"
p420
sI104
S'    else:'
p421
sI105
S"        errval = data[3:].decode('utf-8', 'replace')"
p422
sI106
S'    errorclass = error_map.get(errno, InternalError)'
p423
sI107
S'    raise errorclass(errno, errval)'
p424
ssg89
S'(data="\\xff\\x1a\\x04#42S01Table \'frequencia\' already exists")'
p425
sg91
S'raise_mysql_exception'
p426
sasS'pyver'
p427
S'Python 2.7.12: /usr/bin/python (prefix: /usr)'
p428
sS'session'
p429
g63
(S's\xbb\x01\x00\x00<div><table><tr><td style="font-weight:bold;vertical-align:top;">flash</td><td style="vertical-align:top;">:</td><td><div>None</div></td></tr><tr><td style="font-weight:bold;vertical-align:top;">last_orderby</td><td style="vertical-align:top;">:</td><td><div>None</div></td></tr><tr><td style="font-weight:bold;vertical-align:top;">last_query</td><td style="vertical-align:top;">:</td><td><div>db.cadastro.id&gt;0</div></td></tr></table></div>'
tRp430
sS'etype'
p431
S"<class 'gluon.contrib.pymysql.err.InternalError'>"
p432
sS'date'
p433
S'Sat Mar 17 16:13:55 2018'
p434
sS'response'
p435
g63
(S's\xff\x1a\x00\x00<div><table><tr><td style="font-weight:bold;vertical-align:top;">body</td><td style="vertical-align:top;">:</td><td><div>&lt;cStringIO.StringO object at 0x7fc301b4e1f0&gt;</div></td></tr><tr><td style="font-weight:bold;vertical-align:top;">cookies</td><td style="vertical-align:top;">:</td><td><div><table><tr><td style="font-weight:bold;vertical-align:top;">session_id_kidsappmanager</td><td style="vertical-align:top;">:</td><td><div>127.0.0.1-fe21c102-cc45-41e1-bb34-35904c3249dd<table><tr><td style="font-weight:bold;vertical-align:top;">comment</td><td style="vertical-align:top;">:</td><td><div></div></td></tr><tr><td style="font-weight:bold;vertical-align:top;">domain</td><td style="vertical-align:top;">:</td><td><div></div></td></tr><tr><td style="font-weight:bold;vertical-align:top;">expires</td><td style="vertical-align:top;">:</td><td><div></div></td></tr><tr><td style="font-weight:bold;vertical-align:top;">httponly</td><td style="vertical-align:top;">:</td><td><div></div></td></tr><tr><td style="font-weight:bold;vertical-align:top;">max-age</td><td style="vertical-align:top;">:</td><td><div></div></td></tr><tr><td style="font-weight:bold;vertical-align:top;">path</td><td style="vertical-align:top;">:</td><td><div>/</div></td></tr><tr><td style="font-weight:bold;vertical-align:top;">secure</td><td style="vertical-align:top;">:</td><td><div></div></td></tr><tr><td style="font-weight:bold;vertical-align:top;">version</td><td style="vertical-align:top;">:</td><td><div></div></td></tr></table></div></td></tr></table></div></td></tr><tr><td style="font-weight:bold;vertical-align:top;">delimiters</td><td style="vertical-align:top;">:</td><td><div><table><tr><td><div>{{</div></td></tr><tr><td><div>}}</div></td></tr></table></div></td></tr><tr><td style="font-weight:bold;vertical-align:top;">files</td><td style="vertical-align:top;">:</td><td><div><table></table></div></td></tr><tr><td style="font-weight:bold;vertical-align:top;">flash</td><td style="vertical-align:top;">:</td><td><div></div></td></tr><tr><td style="font-weight:bold;vertical-align:top;">form_label_separator</td><td style="vertical-align:top;">:</td><td><div></div></td></tr><tr><td style="font-weight:bold;vertical-align:top;">formstyle</td><td style="vertical-align:top;">:</td><td><div>bootstrap4_inline</div></td></tr><tr><td style="font-weight:bold;vertical-align:top;">generic_patterns</td><td style="vertical-align:top;">:</td><td><div><table><tr><td><div>*</div></td></tr></table></div></td></tr><tr><td style="font-weight:bold;vertical-align:top;">google_analytics_id</td><td style="vertical-align:top;">:</td><td><div>None</div></td></tr><tr><td style="font-weight:bold;vertical-align:top;">headers</td><td style="vertical-align:top;">:</td><td><div><table><tr><td style="font-weight:bold;vertical-align:top;">X-Powered-By</td><td style="vertical-align:top;">:</td><td><div>web2py</div></td></tr></table></div></td></tr><tr><td style="font-weight:bold;vertical-align:top;">menu</td><td style="vertical-align:top;">:</td><td><div><table></table></div></td></tr><tr><td style="font-weight:bold;vertical-align:top;">meta</td><td style="vertical-align:top;">:</td><td><div><table><tr><td style="font-weight:bold;vertical-align:top;">author</td><td style="vertical-align:top;">:</td><td><div>Your Name &lt;you@example.com&gt;</div></td></tr><tr><td style="font-weight:bold;vertical-align:top;">description</td><td style="vertical-align:top;">:</td><td><div>a cool new app</div></td></tr><tr><td style="font-weight:bold;vertical-align:top;">generator</td><td style="vertical-align:top;">:</td><td><div>Web2py Web Framework</div></td></tr><tr><td style="font-weight:bold;vertical-align:top;">keywords</td><td style="vertical-align:top;">:</td><td><div><table><tr><td><div>web2py</div></td></tr><tr><td><div>python</div></td></tr><tr><td><div>framework</div></td></tr></table></div></td></tr></table></div></td></tr><tr><td style="font-weight:bold;vertical-align:top;">models_to_run</td><td style="vertical-align:top;">:</td><td><div><table><tr><td><div>^\\w+\\.py$</div></td></tr><tr><td><div>^appadmin/\\w+\\.py$</div></td></tr><tr><td><div>^appadmin/select/\\w+\\.py$</div></td></tr></table></div></td></tr><tr><td style="font-weight:bold;vertical-align:top;">postprocessing</td><td style="vertical-align:top;">:</td><td><div><table></table></div></td></tr><tr><td style="font-weight:bold;vertical-align:top;">session_client</td><td style="vertical-align:top;">:</td><td><div>127.0.0.1</div></td></tr><tr><td style="font-weight:bold;vertical-align:top;">session_cookie_compression_level</td><td style="vertical-align:top;">:</td><td><div>None</div></td></tr><tr><td style="font-weight:bold;vertical-align:top;">session_cookie_expires</td><td style="vertical-align:top;">:</td><td><div>None</div></td></tr><tr><td style="font-weight:bold;vertical-align:top;">session_data_name</td><td style="vertical-align:top;">:</td><td><div>session_data_kidsappmanager</div></td></tr><tr><td style="font-weight:bold;vertical-align:top;">session_file</td><td style="vertical-align:top;">:</td><td><div>&lt;open file &#x27;/home/leonardo/Downloads/web2py/applications/KidsAppManager/sessions/156/0bc/127.0.0.1-fe21c102-cc45-41e1-bb34-35904c3249dd&#x27;, mode &#x27;rb+&#x27; at 0x7fc301b55030&gt;</div></td></tr><tr><td style="font-weight:bold;vertical-align:top;">session_filename</td><td style="vertical-align:top;">:</td><td><div>/home/leonardo/Downloads/web2py/applications/KidsAppManager/sessions/127.0.0.1-fe21c102-cc45-41e1-bb34-35904c3249dd</div></td></tr><tr><td style="font-weight:bold;vertical-align:top;">session_hash</td><td style="vertical-align:top;">:</td><td><div>f9046325a96e347f9077941521bdef1f</div></td></tr><tr><td style="font-weight:bold;vertical-align:top;">session_id</td><td style="vertical-align:top;">:</td><td><div>127.0.0.1-fe21c102-cc45-41e1-bb34-35904c3249dd</div></td></tr><tr><td style="font-weight:bold;vertical-align:top;">session_id_name</td><td style="vertical-align:top;">:</td><td><div>session_id_kidsappmanager</div></td></tr><tr><td style="font-weight:bold;vertical-align:top;">session_locked</td><td style="vertical-align:top;">:</td><td><div>True</div></td></tr><tr><td style="font-weight:bold;vertical-align:top;">session_masterapp</td><td style="vertical-align:top;">:</td><td><div>KidsAppManager</div></td></tr><tr><td style="font-weight:bold;vertical-align:top;">session_new</td><td style="vertical-align:top;">:</td><td><div>False</div></td></tr><tr><td style="font-weight:bold;vertical-align:top;">session_storage_type</td><td style="vertical-align:top;">:</td><td><div>file</div></td></tr><tr><td style="font-weight:bold;vertical-align:top;">status</td><td style="vertical-align:top;">:</td><td><div>200</div></td></tr><tr><td style="font-weight:bold;vertical-align:top;">view</td><td style="vertical-align:top;">:</td><td><div>appadmin/select.html</div></td></tr></table></div>'
tRp436
sS'locals'
p437
(dp438
S'errorclass'
p439
S"<class 'gluon.contrib.pymysql.err.InternalError'>"
p440
sS'errno'
p441
S'1050'
p442
sS'is_41'
p443
S'True'
p444
sS'errval'
p445
S'u"Table \'frequencia\' already exists"'
p446
sS'data'
p447
S'"\\xff\\x1a\\x04#42S01Table \'frequencia\' already exists"'
p448
sssS'traceback'
p449
S'Traceback (most recent call last):\n  File "/home/leonardo/Downloads/web2py/gluon/restricted.py", line 219, in restricted\n    exec(ccode, environment)\n  File "/home/leonardo/Downloads/web2py/applications/KidsAppManager/models/db.py", line 187, in <module>\n    migrate =\'frequencia\'\n  File "/home/leonardo/Downloads/web2py/gluon/packages/dal/pydal/base.py", line 586, in define_table\n    table = self.lazy_define_table(tablename, *fields, **args)\n  File "/home/leonardo/Downloads/web2py/gluon/packages/dal/pydal/base.py", line 620, in lazy_define_table\n    polymodel=polymodel)\n  File "/home/leonardo/Downloads/web2py/gluon/packages/dal/pydal/adapters/base.py", line 797, in create_table\n    return self.migrator.create_table(*args, **kwargs)\n  File "/home/leonardo/Downloads/web2py/gluon/packages/dal/pydal/migrator.py", line 277, in create_table\n    self.adapter.create_sequence_and_triggers(query, table)\n  File "/home/leonardo/Downloads/web2py/gluon/packages/dal/pydal/adapters/base.py", line 880, in create_sequence_and_triggers\n    self.execute(query)\n  File "/home/leonardo/Downloads/web2py/gluon/packages/dal/pydal/adapters/__init__.py", line 67, in wrap\n    return f(*args, **kwargs)\n  File "/home/leonardo/Downloads/web2py/gluon/packages/dal/pydal/adapters/base.py", line 412, in execute\n    rv = self.cursor.execute(command, *args[1:], **kwargs)\n  File "/home/leonardo/Downloads/web2py/gluon/contrib/pymysql/cursors.py", line 166, in execute\n    result = self._query(query)\n  File "/home/leonardo/Downloads/web2py/gluon/contrib/pymysql/cursors.py", line 322, in _query\n    conn.query(q)\n  File "/home/leonardo/Downloads/web2py/gluon/contrib/pymysql/connections.py", line 835, in query\n    self._affected_rows = self._read_query_result(unbuffered=unbuffered)\n  File "/home/leonardo/Downloads/web2py/gluon/contrib/pymysql/connections.py", line 1019, in _read_query_result\n    result.read()\n  File "/home/leonardo/Downloads/web2py/gluon/contrib/pymysql/connections.py", line 1302, in read\n    first_packet = self.connection._read_packet()\n  File "/home/leonardo/Downloads/web2py/gluon/contrib/pymysql/connections.py", line 981, in _read_packet\n    packet.check_error()\n  File "/home/leonardo/Downloads/web2py/gluon/contrib/pymysql/connections.py", line 393, in check_error\n    err.raise_mysql_exception(self._data)\n  File "/home/leonardo/Downloads/web2py/gluon/contrib/pymysql/err.py", line 107, in raise_mysql_exception\n    raise errorclass(errno, errval)\nInternalError: (1050, u"Table \'frequencia\' already exists")\n'
p450
s.