(dp1
S'output'
p2
S"<type 'exceptions.AttributeError'> 'DAL' object has no attribute 'nome_sala'"
p3
sS'layer'
p4
S'/home/leonardo/Downloads/web2py/applications/KidsAppManager/controllers/default.py'
p5
sS'code'
p6
S'<code object <module> at 0x7fcca8369430, file "/home/leonardo/Downloads/web2py/applications/KidsAppManager/controllers/default.py", line 9>'
p7
sS'snapshot'
p8
(dp9
sS'traceback'
p10
S'Traceback (most recent call last):\n  File "/home/leonardo/Downloads/web2py/gluon/restricted.py", line 219, in restricted\n    exec(ccode, environment)\n  File "/home/leonardo/Downloads/web2py/applications/KidsAppManager/controllers/default.py", line 117, in <module>\n  File "/home/leonardo/Downloads/web2py/gluon/globals.py", line 419, in <lambda>\n    self._caller = lambda f: f()\n  File "/home/leonardo/Downloads/web2py/applications/KidsAppManager/controllers/default.py", line 72, in entrada\n    return dict(grid=SQLFORM.smartgrid(db.cadastro,linked_tables=[\'cadastro\'],user_signature=False))\n  File "/home/leonardo/Downloads/web2py/gluon/sqlhtml.py", line 3338, in smartgrid\n    user_signature=user_signature, **kwargs)\n  File "/home/leonardo/Downloads/web2py/gluon/sqlhtml.py", line 2733, in grid\n    search_menu = SQLFORM.search_menu(sfields, prefix=prefix)\n  File "/home/leonardo/Downloads/web2py/gluon/sqlhtml.py", line 2146, in search_menu\n    _class=\'form-control\',\n  File "/home/leonardo/Downloads/web2py/gluon/validators.py", line 601, in options\n    self.build_set()\n  File "/home/leonardo/Downloads/web2py/gluon/validators.py", line 572, in build_set\n    table = self.dbset.db[self.ktable]\n  File "/home/leonardo/Downloads/web2py/gluon/packages/dal/pydal/base.py", line 662, in __getitem__\n    return self.__getattr__(str(key))\n  File "/home/leonardo/Downloads/web2py/gluon/packages/dal/pydal/base.py", line 669, in __getattr__\n    return BasicStorage.__getattribute__(self, key)\nAttributeError: \'DAL\' object has no attribute \'nome_sala\'\n'
p11
s.